(dp1
S'args'
p2
S"(S'PyFacebook'\np0\ntp1\n."
p3
sS'methodname'
p4
S'get'
p5
sS'packet_num'
p6
I0
sS'returnval'
p7
S'(dp0\nS\'data\'\np1\n(lp2\n(dp3\nVresult\np4\nV.fbRightFeedbackActions{background-color:#edeff4;padding:5px 5px}\\u000a.fbRightFeedbackNub i{display:block;height:5px;margin-left:17px;background-image:url(https://fbstatic-a.akamaihd.net/rsrc.php/v2/y7/r/UvyvLtJTQzO.png);background-repeat:no-repeat;background-size:auto;background-position:0 0;width:9px}\\u000a.fbRightFeedbackHeader form{display:inline}\\u000a.fbRightFeedbackHeader .fbRightFeedbackActions input, .fbRightFeedbackHeader div.fbRightFeedbackActions input:hover, .fbRightFeedbackHeader .fbRightFeedbackActions button{color:#3b5998}\\u000a.fbRightFeedbackHeader .uiBlingBox, .fbRightFeedbackHeader .uiBlingBox:hover{border-style:none;height:13px;padding:0}\\u000a.fbRightFeedbackHeader .uiBlingBox .text{vertical-align:baseline}\\u000a._24n .body ._24x{color:#333}\\u000a._6nw ._24n .body ._24x{color:#4e5665}\\u000a._24n .body ._24x:hover{text-decoration:none}\\u000a._24n .body a.signature{color:#3b5998;display:inline}\\u000a._24n .body a.signature:hover{text-decoration:underline}\\u000a._24n .hover:hover .title ._24x{text-decoration:underline}\\u000a._24n .forceRTL{direction:rtl;text-align:right;display:block}\\u000a._24n .forceLTR{direction:ltr;text-align:left;display:block}\\u000a._24n .adInfo a.identity{color:gray;display:block;white-space:nowrap}\\u000a._6nw ._24n .adInfo a.identity{color:#898f9c;overflow:hidden;text-overflow:ellipsis}\\u000a._24n .title{font-weight:bold;margin-bottom:0 !important}\\u000a._24n .image_body_block{padding-top:3px}\\u000a._24n .uiUfi{width:auto}\\u000a._24n .fbEmuHidePoll .otherdiv .other{width:206px}\\u000a._24n .ads_rhc_close{opacity:0}\\u000a._24n:hover .old_x, ._24n:hover .uiSelectorButton, ._24n:hover .ads_rhc_close, ._24n .ads_rhc_close.openToggler, .emu_x .openToggler .uiSelectorButton{opacity:1}\\u000a._24y .image .img{padding-top:3px;max-height:72px;max-width:100px}\\u000a._24y .action{margin-top:5px}\\u000a._24y{line-height:13px}\\u000a._24y .fbEmuHide{margin-top:0 !important}\\u000a._24y .image{width:100px;display:block}\\u000a._24y .action{color:#777}\\u000a._24y .action .fbEmuContext ._24x{color:#777}\\u000a._6nw ._24y .action, ._6nw ._24y .action .fbEmuContext ._24x{color:#898f9c}\\u000a._24y .action ._24x{display:inline-block}\\u000a.fbEmuEventDialog .uiInfoTable .label{text-align:left;padding:3px 10px 3px 0;width:65px;vertical-align:middle}\\u000a.fbEmuEventDialog .uiInfoTable .data label{color:#666;font-weight:bold}\\u000a.fbEmuEventDialog .uiInfoTable .data{padding:3px 0}\\u000a.fbEmuEventDialog{padding:7px 0;display:block}\\u000a.fbEmuEventDialog .fbEmuEventDialogImage{padding-top:3px;width:100px}\\u000a.fbEmuEventDialog .fbEmuEventDialogTitle{font-size:10pt;font-weight:bold;width:300px}\\u000a.fbEmuEventDialog .fbEmuEventDialogTable{display:block;width:300px;padding:7px 0}\\u000a.fbEmuEventInline td.label{padding-right:10px;color:#666}\\u000a.fbEmuEventInline td.label{vertical-align:top;padding-bottom:2px}\\u000a.fbEmuEventInline td.content{vertical-align:middle;padding-bottom:2px}\\u000a.fbEmuEventInline .rsvp_icon{vertical-align:middle}\\u000a.fbEmuEventInline .rsvp_action{vertical-align:middle}\\u000a.fbEmuEventInline .rsvp_option{padding-right:10px;white-space:nowrap}\\u000a.fbEmuEventInline label{color:#000;font-weight:normal;padding-left:3px}\\u000a.fbEmuEventInline input{height:14px;margin:0;padding:0;width:14px;vertical-align:middle;margin-top:1px}\\u000a.fbEmuHidePoll .undo{float:right;padding-left:2px;padding-bottom:2px;margin-bottom:3px;margin-left:5px}\\u000a.fbEmuHidePoll .fbEmuXTitle{font-weight:bold}\\u000a.fbEmuHidePoll .fbEmuXSubtitle{margin-bottom:10px}\\u000a.fbEmuHideThanks .fbEmuXThanksTitle{font-weight:bold;margin-bottom:10px}\\u000a.fbEmuBlock .fbEmuHidePoll .otherdiv{margin-left:20px}\\u000a.emu_x{float:right}\\u000a.emu_x .uiSelectorButton{opacity:0}\\u000a.old_x{opacity:0}\\u000a.poll_choices{margin-left:10px;position:relative}\\u000a.poll_choices .submit_progress{position:absolute}\\u000a.poll_choices .hidden{display:none}\\u000a.poll_choice{padding-bottom:4px}\\u000a.poll_choice label{color:#333;font-weight:normal;margin:0;padding:0}\\u000a.poll_choice .inputradio{height:14px;margin:0 7px 0 0;padding:0;width:14px}\\u000a.extended_poll_choice{left:15px;position:relative}\\u000a.poll_result{padding-bottom:5px}\\u000a.poll_result .poll_pct{float:left;padding:1px 4px 0 0;text-align:right;width:25px;word-wrap:normal}\\u000a.poll_result .result_bar_and_friends{float:left;width:203px}\\u000a.poll_result .result_bar{background-color:#d8dfea;height:17px;position:relative}\\u000a.poll_result div.lead_result_bar{background-color:#3b5998;color:#fff}\\u000a.poll_result .poll_label{left:4px;position:absolute;top:1px;white-space:nowrap;overflow:hidden;width:199px;text-overflow:ellipsis}\\u000a.poll_result .friends{clear:both;overflow:hidden}\\u000a.total_votes{color:gray}\\u000a.fbEmuPoll .choice{margin-left:1px}\\u000a.fbEmuPoll .aligned{margin-left:22px}\\u000a.fbEmuPoll .tag_button{margin-top:5px}\\u000a.fbEmuPollSliderGrid{margin:0 auto}\\u000a.hide_voters .other_voters{display:none}\\u000a.fbEmuPollResults .other_voters .face{height:35px;width:35px;margin-right:2px}\\u000a.fbEmuPremium .inline{padding-top:4px}\\u000a.fbEmuPremium .body{line-height:13px}\\u000a.fbEmuPremium .body ._24x{display:block}\\u000a.fbEmuPremium .image .img{max-height:80px;max-width:110px}\\u000a._24w .showQuestion ._24x{color:#3b5998}\\u000a._24w .showQuestion ._24x:hover{text-decoration:underline}\\u000a._24w .pollImage{max-width:50px}\\u000a._24w .shieldQuestion .shieldPrompt{display:block}\\u000a._24w .shieldPrompt{display:none}\\u000a._24w .shieldQuestion .fbEmuPoll{display:none}\\u000a._24w .fbEmuPoll{display:block}\\u000a.fbEmuPreview{background-color:#fff;padding:10px;width:234px}\\u000a.fbAdsRangeSlider{cursor:pointer;height:16px;position:relative}\\u000a.fbAdsRangeSliderEnds{height:15px;margin-top:1px;position:absolute}\\u000a.fbAdsRangeSliderLeftEnd{border-left:1px solid #b7c8d9;left:-1px}\\u000a.fbAdsRangeSliderRightEnd{border-right:1px solid #b7c8d9;right:0}\\u000a.fbAdsRangeSliderGuide{border-top:1px solid #b7c8d9;position:absolute;top:8px;height:0;width:100%}\\u000a.fbAdsRangeSliderTicks{position:absolute;top:50%;width:100%}\\u000a.fbAdsRangeSliderTicks div{border-right:1px solid #eee;height:11px;margin-top:-5px;position:absolute;top:0}\\u000a.fbAdsRangeSliderThumb{margin-left:-11px;position:absolute;top:0}\\u000a.fbEmuMainBody .firstPassiveName{font-weight:bold}\\u000a.fbEmuPremium .fbEmuStreamAttachment{margin-bottom:3px}\\u000a.fbEmuStreamStory .fbEmuStreamAttachment.fbEmuStreamOGAction{border-top:1px solid #e5e7eb;border-bottom:1px solid #e5e7eb;padding-top:6px;padding-bottom:6px;margin-bottom:5px}\\u000a.fbEmuStreamStory .fbEmuStreamAttachment.fbEmuStreamLinkStory{border-top:1px solid #e5e7eb;border-bottom:1px solid #e5e7eb;border-left:1px solid #e5e7eb;border-right:1px solid #e5e7eb;margin-bottom:5px;margin-right:4px}\\u000a.fbEmuStreamStory .fbEmuStreamAttachment.fbEmuStreamLinkStory .centeredImageWrapper{border-right:1px solid #e5e7eb;display:table-cell;vertical-align:middle}\\u000a.fbEmuMarketplace .fbEmuStreamAttachment.fbEmuStreamLinkStory .centeredImageWrapper{height:58px;width:50px}\\u000a.fbEmuPremium .fbEmuStreamAttachment.fbEmuStreamLinkStory .centeredImageWrapper{height:87px;width:74px}\\u000a.fbEmuStreamStory .fbEmuStreamAttachment.fbEmuStreamLinkStory .centeredImageWrapper img{margin:0 auto}\\u000a.fbEmuPremium .fbEmuStreamAttachment.fbEmuStreamLinkStory .centeredImageWrapper img{max-height:87px;max-width:74px}\\u000a.fbEmuMarketplace .fbEmuStreamAttachment.fbEmuStreamLinkStory .centeredImageWrapper img{max-height:58px;max-width:50px}\\u000a.fbEmuStreamStory .whitespaceLink{display:inline}\\u000a.fbEmuStreamStory .whitespaceLink:hover\\u000a.fbEmuStreamAttachment.fbEmuStreamOGAction{border-top:1px solid #c4cde1;border-bottom:1px solid #c4cde1}\\u000a.fbEmuStreamStory.fbEmuStreamAttachment.fbEmuStreamLinkStory:hover{border-top:1px solid #c4cde1;border-bottom:1px solid #c4cde1;border-left:1px solid #c4cde1;border-right:1px solid #c4cde1}\\u000a.fbEmuStreamStory .fbEmuStreamAttachment.fbEmuStreamLinkStory:hover .centeredImageWrapper{border-right:1px solid #c4cde1}\\u000a.fbEmuStreamStory .fbEmuStreamAttachment.fbEmuStreamOGAction .fbEmuStreamTitle{margin-top:4px}\\u000a.fbEmuPremium .fbEmuStreamAttachment.fbEmuStreamPhotoStory{margin-bottom:2px}\\u000a.fbEmuStreamAttachment.fbEmuStreamEventStory a.fbEmuStreamTitle, .fbEmuPicStory a.fbEmuStreamTitle, .fbEmuLikeMessage{color:gray}\\u000a.fbEmuPremium .fbEmuStreamAttachment.fbEmuStreamOGAction img, .fbEmuPremium .fbEmuStreamAttachment.fbEmuStreamEventStory img{max-height:75px;max-width:75px}\\u000a.fbEmuMarketplace .fbEmuStreamAttachment.fbEmuStreamEventStory img, .fbEmuStreamStory .fadPageAttachment img{max-height:50px;max-width:50px}\\u000a.fbEmuStreamAttachment.fbEmuStreamLinkStory ._24x{margin-right:5px}\\u000a.fbEmuPicStory a.fbEmuStreamTitle, .fbEmuStreamAttachment.fbEmuStreamEventStory .fbEmuStreamAttachmentBlock a{font-weight:normal}\\u000a.fbEmuStreamAttachment.fbEmuStreamLinkStory .fbEmuStreamTitle{font-weight:bold;padding-top:4px}\\u000a.fbEmuMarketplace .fbEmuStreamAttachment.fbEmuStreamPhotoStory img, .fbEmuMarketplace .fbEmuStreamAttachment.fbEmuStreamPhotoStory i{max-height:90px;max-width:118px}\\u000a.fbEmuPremium .fbEmuStreamAttachment.fbEmuStreamPhotoStory img, .fbEmuPremium .fbEmuStreamAttachment.fbEmuStreamPhotoStory i{max-height:128px;max-width:168px}\\u000a.fbEmuStreamStory .uiVideoThumb.fbEmuLargeThumb{margin-right:0}\\u000a.fbEmuMarketplace .uiVideoThumb.fbEmuLargeThumb img{display:block;height:72px;max-height:72px;max-width:128px}\\u000a.fbEmuPremium .uiVideoThumb.fbEmuLargeThumb img{height:104px;display:block;max-height:104px;max-width:185px}\\u000a.fbEmuStreamStory .uiStreamMessage{font-weight:normal}\\u000a.fbEmuStreamStory .fbEmuStreamTitle{display:block;font-weight:bold}\\u000a.fbEmuStreamStory .fbEmuStreamBody{color:#666}\\u000a.fbEmuStreamStory .uiPhotoThumb{display:inline-block}\\u000a.fbEmuStreamStory .whitespaceLink:hover .fbEmuStreamOGAction, .fbEmuStreamStory .fbEmuStreamLinkStory:hover{text-decoration:underline}\\u000a.fbEmuStreamStory .whitespaceLink:hover{cursor:pointer}\\u000a.fbEmuStreamStory .messageBody .whitespaceLink:hover, .fbEmuStreamStory .whitespaceLink:hover .fbEmuStreamOGAction, .fbEmuStreamStory .whitespaceLink:hover .fbEmuLikeMessage{background-color:#eceff5}\\u000a.fbEmuStreamStory .fbEmuStreamLinkStory:hover{background-color:#f6f7f9}\\u000a.fbEmuStreamStory .whitespaceLink:hover a.uiBlingBox{text-decoration:none}\\u000a.fbEmuStreamStory .whitespaceLink:hover .uiBlingBox{background-color:#eceff5}\\u000a.fbEmuStreamStory .fbEmuStreamPhotoStory:hover .uiPhotoThumb{border:1px solid #3b5998}\\u000a.fbEmuStreamStory .uiVideoThumb{display:inline-block;margin-right:5px}\\u000a.fbEmuStreamStory .uiVideoThumb img{height:auto}\\u000a.fbEmuStreamStory .uiVideoThumb.fbEmuSmallThumb img{max-width:60px}\\u000a.fbEmuStreamStory .fbEmuStreamAttachment .uiPhotoThumb img{margin:3px}\\u000a.fbEmuStreamStory .textOnly{word-wrap:break-word}\\u000a.fbEmuStreamStory .textWithMedia{word-wrap:break-word}\\u000a.fbEmuStreamAttachmentOffset{border-left:2px solid #ccc;padding-left:4px}\\u000a.fbEmuStreamAttachmentOffset .fbEmuPicStory, .fbEmuStreamStory .fbEmuStreamAttachmentOffset .textOnly{border-left:0;padding-left:0}\\u000a.fbEmuStreamStory .uiUfi .ufiItem{padding:3px 3px 2px}\\u000a.fbEmuStreamStory .uiBlingBox .text{line-height:normal}\\u000a.fbEmuStreamStory .uiBlingBox{margin-right:-1px;margin-left:-1px}\\u000a.fbEmuStreamStory .uiBlingBox .img{margin-top:-1px}\\u000a.fbEmuStreamStory .fbTimelineFeedbackComments{float:left;padding-right:3px}\\u000a.fbEmuStreamStory .fbTimelineFeedbackLikes{float:left;padding-right:3px}\\u000a.fbFeedTickerStory .fbEmuStreamStory .fbEmuStreamAttachment img{width:32px;height:32px}\\u000a.fbFeedTickerStory .fbEmuStreamAttachment .fbEmuStreamAttachmentBlock{height:32px}\\u000a.fbEmuStream .title{font-weight:bold;line-height:13px;margin-right:20px}\\u000a.fbEmuStream .fbEmuContext{margin-bottom:2px}\\u000a.fbEmuStream .action{margin:2px 0 1px 0}\\u000a.fbEmuStream .body{line-height:13px}\\u000a.fbEmuStreamBlockQuote{border-left:2px solid #ccc;padding:0 0 3px 8px}\\u000a.fbEmuStream .text_exposed_link{padding:0 0 0 5px}\\u000a.fbEmuStreamAttribution{color:gray}\\u000a.bassLike{margin-top:2px}\\u000a.fbEmuStreamStory{padding-top:1px}\\u000a.fbEmuComboList .fbEmuComboListHeader{background-color:#ccc;border-top:1px solid #ccc;margin:13px 0 8px 0;padding:0;position:relative}\\u000a.fbEmuComboList .fbEmuComboListHeader .fbEmuComboListHeaderText{background-color:#fff;color:#999;font-size:9px;font-weight:bold;left:0;margin-left:32px;padding:0 8px;position:absolute;top:-6px}\\u000a.fbEmuStreamStory .tickerStoryBlock .uiStreamMessage .passiveName, .fbEmuStreamStory .uiStreamMessage .actorName.firstName, .fbEmuStreamStory .uiStreamMessage .passiveName.firstName{font-weight:bold}\\u000a.fbEmuStreamStory .uiStreamMessage .actorName, .fbEmuStreamStory .uiStreamMessage .passiveName{font-weight:normal}\\u000a.fbEmuTracking{position:absolute;visibility:hidden}\\u000a.pas{padding:5px}\\u000a.pam{padding:10px}\\u000a.pal{padding:20px}\\u000a.pts{padding-top:5px}\\u000a.ptm{padding-top:10px}\\u000a.ptl{padding-top:20px}\\u000a.prs{padding-right:5px}\\u000a.prm{padding-right:10px}\\u000a.prl{padding-right:20px}\\u000a.pbs{padding-bottom:5px}\\u000a.pbm{padding-bottom:10px}\\u000a.pbl{padding-bottom:20px}\\u000a.pls{padding-left:5px}\\u000a.plm{padding-left:10px}\\u000a.pll{padding-left:20px}\\u000a.phs{padding-left:5px;padding-right:5px}\\u000a.phm{padding-left:10px;padding-right:10px}\\u000a.phl{padding-left:20px;padding-right:20px}\\u000a.pvs{padding-top:5px;padding-bottom:5px}\\u000a.pvm{padding-top:10px;padding-bottom:10px}\\u000a.pvl{padding-top:20px;padding-bottom:20px}\\u000a.mas{margin:5px}\\u000a.mam{margin:10px}\\u000a.mal{margin:20px}\\u000a.mts{margin-top:5px}\\u000a.mtm{margin-top:10px}\\u000a.mtl{margin-top:20px}\\u000a.mrs{margin-right:5px}\\u000a.mrm{margin-right:10px}\\u000a.mrl{margin-right:20px}\\u000a.mbs{margin-bottom:5px}\\u000a.mbm{margin-bottom:10px}\\u000a.mbl{margin-bottom:20px}\\u000a.mls{margin-left:5px}\\u000a.mlm{margin-left:10px}\\u000a.mll{margin-left:20px}\\u000a.mhs{margin-left:5px;margin-right:5px}\\u000a.mhm{margin-left:10px;margin-right:10px}\\u000a.mhl{margin-left:20px;margin-right:20px}\\u000a.mvs{margin-top:5px;margin-bottom:5px}\\u000a.mvm{margin-top:10px;margin-bottom:10px}\\u000a.mvl{margin-top:20px;margin-bottom:20px}\\u000a._5lqh a:hover, ._5lqh a:visited, ._5lqh a:active, ._5lqh a{color:inherit;text-decoration:inherit}\\u000a._5lqi{height:280px}\\u000a#adscreatorbody ._5lqi{height:396px}\\u000a._5lqj{background-color:#c3c6d8;padding:15px 10px;position:absolute;transform:scale(0.69);transform-origin:0 0;width:320px}\\u000a#adscreatorbody ._5lqj{transform:scale(0.96)}\\u000a._5lqh{border-radius:2px;box-shadow:1px 2px 2px #aaa;font-family:Helvetica, sans-serif;margin:auto;width:100%}\\u000a._5py2{color:red}\\u000a._5lqh ._5lqk{background-color:#fff;padding:9px}\\u000a._5lqh ._5lqk a{display:block}\\u000a._5lqh ._5lql{background-color:#f7f7f7;border-bottom:solid 1px #c2c2c2;border-radius:2px 2px 0 0;color:#949494;font-size:13px;font-weight:600;padding:4px 10px 3px}\\u000a._5lqh ._5lqm{background-color:#f3f4f7;border:1px solid #d1d1d1;margin:8px 0 0}\\u000a._5lqh ._5lqm\\u000a._5lqn{padding:9px}\\u000a._5lqh ._5lqo{display:block;height:auto;max-height:180px;width:100%}\\u000a._5lqh ._5lqk\\u000a._5lqp{color:#444;font-size:13px;font-weight:bold;line-height:16px;margin-bottom:2px}\\u000a._5lqh ._5lqk\\u000a._5lqq{display:block;line-height:1.0;margin-bottom:6px}\\u000a._5lqh ._5lqk\\u000a._5lqq i{vertical-align:bottom}\\u000a._5lqh ._5lqk\\u000a._5lqr{color:#333;font-size:15px;font-weight:normal;line-height:17px;margin:9px 0 9px;max-height:52px;overflow:hidden}\\u000a._5lqh ._5lqk\\u000a._5lqs{color:gray;font-size:12px;line-height:15px}\\u000a._5lqh ._5lqk\\u000a._5lqt{background-image:url(https://fbstatic-a.akamaihd.net/rsrc.php/v2/yb/r/PrVh6W-yL19.png);float:left;height:32px;width:5px}\\u000a._5lqh ._5lqk\\u000a._5lqu{background-image:url(https://fbstatic-a.akamaihd.net/rsrc.php/v2/yb/r/PrVh6W-yL19.png);background-position:-6px 0;float:right;height:32px;width:5px}\\u000a._5lqh ._5lqk\\u000a._5lqv{background-image:url(https://fbstatic-a.akamaihd.net/rsrc.php/v2/yC/r/IywnuviI3FC.png);background-repeat:repeat-x;height:32px;line-height:32px;margin:0 5px}\\u000a._5lqh ._5lqk\\u000a._5lqv span{font-weight:bold;padding:0 5px}\\u000a._5lqw{height:200px}\\u000a#adscreatorbody ._5lqw{height:290px}\\u000a._5lqx{background-color:#c3c6d8;padding:15px 10px;position:absolute;transform:scale(0.42);transform-origin:0 0;width:520px}\\u000a#adscreatorbody ._5lqx{transform:scale(0.6)}\\u000a._5lqy{background:#fff;border-radius:2px;box-shadow:1px 2px 2px #aaa;font-family:Helvetica, sans-serif;margin:auto;padding:9px}\\u000a._5lqy ._5lqo{display:block;height:auto;max-height:300px;width:100%}\\u000a._49tg{position:relative}\\u000a._49th{display:inline;padding-right:5px;position:relative}\\u000a._49ti{display:inline;padding-right:3px;position:relative}\\u000a._49tj{top:1px}\\u000a._49tk{top:3px}\\u000a._49tl{top:4px}\\u000a._49tm{color:#666;display:inline;font-size:10px;position:relative}\\u000a._5hww ._49tm{color:#3b5998;font-size:11px}\\u000a.cardDimensionLarge ._2p9v{margin:8px}\\u000a.cardDimensionMedium ._2p9v{margin-top:8px}\\u000a.cardDimensionSmall ._2p9v{margin:6px}\\u000a.cardDimensionLarge ._2p9v ._2p9w ._2p9x{color:#333;font-size:13px;line-height:19px}\\u000a.cardDimensionMedium ._2p9v ._2p9w ._2p9x{color:#3b5998;font-size:11px;line-height:13px}\\u000a.cardDimensionSmall ._2p9v ._2p9w ._2p9x{color:#333;font-size:10px;line-height:10px}\\u000a.cardDimensionLarge ._2p9v ._2p9w ._2p9y{color:#999;font-size:11px;padding-bottom:2px}\\u000a.cardDimensionMedium ._2p9v ._2p9w ._2p9y{color:#999;font-size:11px;line-height:13px}\\u000a.cardDimensionSmall ._2p9v ._2p9w ._2p9y{color:#999;font-size:7px;padding-bottom:2px}\\u000a._2p9v ._2p9w ._2p9z{color:#333}\\u000a.cardDimensionLarge ._2p9v ._2p9w\\u000a._2p9z{font-size:12px;line-height:16px}\\u000a.cardDimensionMedium ._2p9v ._2p9w\\u000a._2p9z{color:#333;font-size:11px;line-height:13px}\\u000a.cardDimensionSmall ._2p9v ._2p9w\\u000a._2p9z{font-size:8px;line-height:12px}\\u000a._2p9v ._2p9w ._2p9-{color:#333}\\u000a.cardDimensionLarge ._2p9v ._2p9w\\u000a._2p9-{font-size:12px}\\u000a.cardDimensionMedium ._2p9v ._2p9w\\u000a._2p9-{font-size:11px;line-height:13px}\\u000a.cardDimensionSmall ._2p9v ._2p9w\\u000a._2p9-{font-size:8px}\\u000a._2p9v ._2p9_{box-shadow:0 3px 3px 0 rgba(0, 0, 0, .35);height:45px;width:45px}\\u000a._2pa0{position:relative}\\u000a._2pa0.cardDimensionLarge{border:1px solid rgba(0, 0, 0, .2);margin:2px 0 4px;width:272px}\\u000a._2pa0.cardDimensionMedium{margin:10px 0 18px 12px;width:208px}\\u000a._2pa0.cardDimensionSmall{border:1px solid rgba(0, 0, 0, .2);margin:2px 0 4px;width:180px}\\u000a._2pa0:hover a{text-decoration:none}\\u000a._2pa0:hover .uiSelectorButton{opacity:1}\\u000a.fbPhotoSnowliftContainer ._2pa0{left:18px}\\u000a._2pot{position:absolute;z-index:1}\\u000a.cardDimensionLarge ._2pot{right:10px;top:70px}\\u000a.cardDimensionMedium ._2pot{right:8px;top:48px}\\u000a.cardDimensionSmall ._2pot{right:8px;top:38px}\\u000a._2pot .uiButton{border:1px solid rgba(0, 0, 0, .2);border-radius:4px}\\u000a._2pot:hover .uiButton{border-radius:4px}\\u000a._2pot .uiButtonOverlay{background-color:rgba(255, 255, 255, .90)}\\u000a._2pot:hover .uiButtonOverlay{background-color:rgba(255, 255, 255, .90)}\\u000a._2pot:hover .uiButton .uiButtonText{color:#000}\\u000a._2pot .uiButton .uiButtonText, ._2pot:hover .uiButtonDisabled .uiButtonText{color:rgba(0,0,0,0.6);text-shadow:0 0 5px rgba(255,255,255,1)}\\u000a.cardDimensionLarge ._2p9s ._2p9t{height:101px;width:272px}\\u000a.cardDimensionMedium ._2p9s ._2p9t{height:77px;width:208px}\\u000a.cardDimensionSmall ._2p9s ._2p9t{height:67px;width:180px}\\u000a._2p9s ._2p9u{border-bottom:1px solid rgba(0, 0, 0, .1);position:absolute;z-index:1}\\u000a.cardDimensionLarge ._2p9u{height:99px;width:270px}\\u000a.cardDimensionMedium ._2p9u{border:1px solid rgba(0, 0, 0, .1);height:75px;width:206px}\\u000a.cardDimensionSmall ._2p9u{height:65px;width:178px}\\u000a._2p9s ._49tf i{background-image:url(https://fbstatic-a.akamaihd.net/rsrc.php/v2/yN/r/aERK2-5sOBX.png);height:22px;left:12px;position:absolute;width:27px}\\u000a.cardDimensionLarge ._2p9s ._49tf i{top:72px}\\u000a.cardDimensionMedium ._2p9s ._49tf i{top:48px}\\u000a.cardDimensionSmall ._2p9s ._49tf i{top:38px}\\u000a._53ei{position:absolute;right:7px;top:6px;z-index:99}\\u000a._53ei .uiCloseButton{background-position:left -16px;margin-right:0}\\u000a._53ei .openToggler .uiSelectorButton{opacity:1}\\u000a._53ei .uiSelectorButton{opacity:0}\\u000a._53ej{float:right;margin-bottom:3px;margin-left:5px;padding-bottom:2px;padding-left:2px}\\u000a._5cya{margin-top:8px;padding:0 4px;text-align:center}\\u000a._5cya ._5cyb{float:left}\\u000a._5cya ._5cyc{float:right}\\u000a._5cya.adUnitSliderSimplified{margin-bottom:3px;margin-top:0;padding:0;width:120px}\\u000a._5cya.adUnitSliderSimplified ._5cyd ._5k1a{padding-top:4px}\\u000a._5fxh{margin:2px 0 4px;position:relative}\\u000a._5fxh:hover a{text-decoration:none}\\u000a._5fxh:hover .emu_x .uiSelectorButton{opacity:1}\\u000a._5i2f{display:inline-block}\\u000a._5i29{color:#999;font-size:11px}\\u000a._5p3y ._5i29{font-size:12px}\\u000a._5fxm{padding-top:3px}\\u000a._5fxm ._5fxn{color:#333;font-size:11px;line-height:13px}\\u000a._5p3y ._5fxm ._5fxn{font-size:12px}\\u000a._5h83{display:block}\\u000a._5h83 ._5h84{display:inline;position:relative}\\u000a._5h83 ._5h85{color:#777;display:inline;font-size:11px;line-height:13px;position:relative}\\u000a._5p3y ._5h83 ._5h85{font-size:12px}\\u000a._5fxi{padding-bottom:3px;padding-top:6px;position:relative}\\u000a._5hwt{width:100px}\\u000a._5hwt .img{max-height:72px;max-width:100px}\\u000a._5hwu{width:128px}\\u000a._5hwu .img{max-height:72px;max-width:128px}\\u000a._5fxi ._5hwv i{background-image:url(https://fbstatic-a.akamaihd.net/rsrc.php/v2/yN/r/aERK2-5sOBX.png);bottom:6px;height:22px;left:3px;position:absolute;width:27px}\\u000a._5hwx{display:table-cell;vertical-align:middle;width:120px}\\u000a._5hwx .img{max-height:90px;max-width:120px}\\u000a._5fxj ._5fxk{color:#3b5998;font-size:11px;line-height:13px}\\u000a._5fxj ._5fxl{color:#999;font-size:11px;inline-height:13px}\\u000a._5p3y ._5fxj ._5fxk, ._5p3y ._5fxj ._5fxl{font-size:12px}\\u000abutton.async_saving .default_message,\\u000aa.async_saving .default_message,\\u000aform.async_saving .default_message,\\u000a.saving_message{display:none}\\u000a.default_message,\\u000abutton.async_saving .saving_message,\\u000aa.async_saving .saving_message,\\u000aform.async_saving .saving_message{display:inline}\\u000aform{margin:0;padding:0}\\u000alabel{cursor:pointer;color:#666;font-weight:bold;vertical-align:middle}\\u000alabel input{font-weight:normal}\\u000atextarea, .inputtext, .inputpassword{border:1px solid #bdc7d8;margin:0;padding:3px}\\u000atextarea{max-width:100%}\\u000aselect{border:1px solid #bdc7d8;padding:2px}\\u000a.inputtext, .inputpassword{padding-bottom:4px}\\u000a.inputtext:invalid, .inputpassword:invalid{box-shadow:none}\\u000a.inputradio{padding:0;margin:0 5px 0 0;vertical-align:middle}\\u000a.inputcheckbox{border:0;vertical-align:middle}\\u000a.inputbutton, .inputsubmit{border-style:solid;border-width:1px;border-color:#d9dfea #0e1f5b #0e1f5b #d9dfea;background-color:#3b5998;color:#fff;padding:2px 15px 3px 15px;text-align:center}\\u000a.inputsubmit_disabled{background-color:#999;border-bottom:1px solid #000;border-right:1px solid #666;color:#fff}\\u000a.inputaux{background:#f0f0f0;border-color:#e7e7e7 #666 #666 #e7e7e7;color:#000}\\u000a.inputaux_disabled{color:#999}\\u000a.inputsearch{background:#fff url(https://fbstatic-a.akamaihd.net/rsrc.php/v2/yV/r/IJYgcESal33.png) no-repeat left 4px;padding-left:17px}\\u000abody{background:#fff;color:#333;line-height:1.28;margin:0;padding:0;text-align:left;direction:ltr;unicode-bidi:embed}\\u000abody, button, input, label, select, td, textarea{font-family:\'lucida grande\',tahoma,verdana,arial,sans-serif;font-size:11px}\\u000ah1, h2, h3, h4, h5, h6{font-size:13px;color:#333;margin:0;padding:0}\\u000ah1{font-size:14px}\\u000ah4, h5, h6{font-size:11px}\\u000ap{margin:1em 0}\\u000aa{color:#3b5998;cursor:pointer;text-decoration:none}\\u000abutton{margin:0}\\u000aa:hover{text-decoration:underline}\\u000aimg{border:0}\\u000atd, td.label{text-align:left}\\u000add{color:#000}\\u000adt{color:#777}\\u000aul{list-style-type:none;margin:0;padding:0}\\u000aabbr{border-bottom:none}\\u000ahr{background:#d9d9d9;border-width:0;color:#d9d9d9;height:1px}\\u000a.clearfix:after{clear:both;content:".";display:block;font-size:0;height:0;line-height:0;visibility:hidden}\\u000a.clearfix{zoom:1}\\u000a.datawrap{word-wrap:break-word}\\u000a.word_break{display:inline-block}\\u000a.ellipsis{overflow:hidden;text-overflow:ellipsis;white-space:nowrap}\\u000a.aero{opacity:.5}\\u000a.column{float:left}\\u000a.center{margin-left:auto;margin-right:auto}\\u000a#facebook .hidden_elem{display:none !important}\\u000a#facebook .invisible_elem{visibility:hidden}\\u000a#facebook .accessible_elem{clip:rect(1px 1px 1px 1px);clip:rect(1px, 1px, 1px, 1px);height:1px;overflow:hidden;position:absolute;width:1px}\\u000a.direction_ltr{direction:ltr}\\u000a.direction_rtl{direction:rtl}\\u000a.text_align_ltr{text-align:left}\\u000a.text_align_rtl{text-align:right}\\u000abutton.as_link{background:none;border:none;color:#3b5998;cursor:pointer;font-family:\'lucida grande\',tahoma,verdana,arial,sans-serif;font-size:100%;margin:0;overflow:visible;padding:0;text-align:left;width:auto}\\u000abutton.as_link:hover span, button.as_link:focus span{text-decoration:underline}\\u000abutton.as_link .button_img{margin:0 6px 0 0;vertical-align:text-bottom;width:16px;height:16px}\\u000a.uiCloseButton{cursor:pointer;display:inline-block;margin:0;padding:0;zoom:1}\\u000alabel.uiCloseButton{overflow:hidden}\\u000a.uiCloseButton input{cursor:pointer;opacity:0;outline:none;padding:18px}\\u000a.uiCloseButton{background-image:url(https://fbstatic-a.akamaihd.net/rsrc.php/v2/yA/r/4WSewcWboV8.png);background-repeat:no-repeat;height:15px;width:15px}\\u000a.uiCloseButtonSmall{background-image:url(https://fbstatic-a.akamaihd.net/rsrc.php/v2/yx/r/ogYrclupeJV.png);height:11px;margin-top:1px;width:11px}\\u000a.uiCloseButtonHuge{background-image:url(https://fbstatic-a.akamaihd.net/rsrc.php/v2/yj/r/ubIGOTIgUYc.png)}\\u000a.uiCloseButtonDark{background-position:left -16px}\\u000a.uiCloseButtonInverted{background-image:url(https://fbstatic-a.akamaihd.net/rsrc.php/v2/yo/r/33RpiRygxAr.png);background-position:left -16px}\\u000a.uiCloseButtonGray{background-image:url(https://fbstatic-a.akamaihd.net/rsrc.php/v2/y7/r/gmSNAxiWQKY.png)}\\u000a.uiCloseButton:hover, .uiCloseButton:focus{background-position:left -32px}\\u000a.uiCloseButton:active{background-position:left -48px}\\u000a.uiCloseButtonSmallDark{background-position:left -12px}\\u000a.uiCloseButtonSmallGray{background-image:url(https://fbstatic-a.akamaihd.net/rsrc.php/v2/y0/r/8FA3puZNL-X.png)}\\u000a.uiCloseButtonSmallInverted{background-image:url(https://fbstatic-a.akamaihd.net/rsrc.php/v2/yT/r/Vi-KTnbdMKr.png);background-position:left -12px}\\u000a.uiCloseButtonSmall:hover, .uiCloseButtonSmall:focus{background-position:left -24px}\\u000a.uiCloseButtonSmall:active{background-position:left -36px}\\u000a.uiCloseButtonHighContrast{display:none}\\u000a.highContrast .uiCloseButtonHighContrast{display:inline-block}\\u000a.uiPopover .uiCloseButton{background-clip:padding-box;border:1px solid transparent;margin:0}\\u000a.uiPopover.openToggler .uiCloseButton{background-position:left -32px}\\u000a.uiPopover.openToggler .uiCloseButtonSmall{background-position:left -24px}\\u000a.uiPopover.openToggler .uiCloseButton, .uiPopover.openToggler .uiCloseButton:active, .uiPopover.openToggler .uiCloseButton:focus, .uiPopover.openToggler .uiCloseButton:hover{background-color:#6d84b4;border:1px solid #3b5998;border-bottom-color:#6d84b4;box-shadow:none}\\u000a._a6c{height:50px;margin:2px 6px 2px 2px;width:50px}\\u000a._a6d{border:dashed 1px #d8dfea;cursor:pointer;padding:2px}\\u000a._a6d:hover{cursor:pointer;text-decoration:underline}\\u000a._a6e{color:#3b5998;height:50px;padding-right:4px}\\u000a.DOMControl_placeholder{color:#777}\\u000a.no_js .DOMControl_placeholder{color:#000}\\u000a.fbPagePostFooter .fbTimelineFeedbackActions{border-bottom-width:0}\\u000a.fbPagePostFooter .fbUfi{padding-top:2px;width:100%}\\u000a.fbEmuStreamStory .fbPagePostFooter .uiUfi .ufiItem{margin-top:0;padding:5px 5px}\\u000a.UIActionLinks_title{font-size:9px;font-weight:normal;white-space:nowrap;color:#999}\\u000a.UIActionLinks_bottom{color:#999}\\u000a.UIActionLinks_bottom a,\\u000a.UIActionLinks_bottom button.as_link,\\u000a.UIActionLinks_bottom .uiLinkButton input,\\u000a.UIActionLinks_bottom .uiLinkButton input:hover{color:#6d84b4}\\u000a.UIActionLinks .uiBlingBox{color:#3b5998}\\u000a.UIActionLinks .promoteButton{margin-top:-2px}\\u000a.lfloat{float:left}\\u000a.rfloat{float:right}\\u000a.photoPoll{position:relative}\\u000a.voteButtonContainer{position:absolute;right:7px;top:7px;z-index:2}\\u000a.contextPopup .voteButtonContainer{right:12px;top:12px}\\u000a.photoPoll .voteButton{display:block}\\u000a.pollPopup{font-size:13px;margin-top:10px;padding-top:10px;position:relative;width:378px}\\u000a.contextPopup .pollPopup .fbQuestionPollForm{border-bottom:1px solid #ccc;border-bottom:none;margin-left:-8px;margin-left:8px;margin-right:8px;padding-bottom:10px;padding-top:15px;width:340px}\\u000a.photoPoll .titleBar .titleBarText{float:left;overflow:hidden;padding-bottom:5px;padding-top:5px;text-overflow:ellipsis}\\u000a.photoPoll .titleBar{background-color:rgba(0, 0, 0, .7);color:#fff;display:none;font-size:12px;font-weight:bold;margin-left:1px;padding-left:6px;position:absolute;white-space:nowrap;z-index:1}\\u000a.photoPoll:hover .titleBar, .uiOverlayContent .contextPopup .titleBar{display:block}\\u000a.uiOverlayContent .contextPopup .titleBar{font-size:16px;padding-bottom:2px;padding-top:2px}\\u000a.photoPoll .photo_single{border:1px solid rgba(0, 0, 0, .1)}\\u000a.photoPoll .photoPollPageLink{height:16px;margin-left:3px;margin-top:5px;width:16px}\\u000a.photoPoll .photoPollPageLinkIcon{margin-left:3px}\\u000a.contextPopup .photoPoll .photoPollPageLink{padding-top:2px}\\u000a.photoPoll .photoPollPageLinkIcon:hover{background-color:#6d84b4;border-radius:2px}\\u000a.uiTypeaheadView .search li{min-height:50px;padding:2px 30px 2px 63px}\\u000a.uiTypeaheadView .search li a{outline:none}\\u000a.uiTypeaheadView .search li a:hover{text-decoration:none}\\u000a.uiTypeaheadView .search .playButton{height:30px;left:16px;top:12px;position:absolute;width:30px;background-image:url(https://fbstatic-a.akamaihd.net/rsrc.php/v2/yo/r/yAned58OhqV.png);background-repeat:no-repeat;background-size:auto;background-position:0 0}\\u000a.uiTypeaheadView .search a:hover .playButton{background-image:url(https://fbstatic-a.akamaihd.net/rsrc.php/v2/yo/r/yAned58OhqV.png);background-repeat:no-repeat;background-size:auto;background-position:0 -30px}\\u000a.uiTypeaheadView .search .music_playing a .playButton{background-image:url(https://fbstatic-a.akamaihd.net/rsrc.php/v2/yo/r/yAned58OhqV.png);background-repeat:no-repeat;background-size:auto;background-position:0 -60px}\\u000a.uiTypeaheadView .search .music_playing a:hover .playButton{background-image:url(https://fbstatic-a.akamaihd.net/rsrc.php/v2/yo/r/yAned58OhqV.png);background-repeat:no-repeat;background-size:auto;background-position:0 -90px}\\u000a.uiTypeaheadView .search .song.async_saving a .playButton{background-image:url(https://fbstatic-a.akamaihd.net/rsrc.php/v2/yo/r/yAned58OhqV.png);background-repeat:no-repeat;background-size:auto;background-position:0 -120px}\\u000a.uiTypeaheadView .search .song.async_saving a .playLoader{position:absolute;width:14px;height:14px;left:24px;top:20px;background:url(https://fbstatic-a.akamaihd.net/rsrc.php/v2/yp/r/DrGcdjdlpCl.gif) no-repeat}\\u000a.uiTypeaheadView .search .splitpics, .uiTypeaheadView .search .group .photo, .uiTypeaheadView .search img{background-color:#eceff5;display:block;height:50px;left:6px;position:absolute;width:50px}\\u000a.uiTypeaheadView .search .text{color:#3b5998;font-weight:bold}\\u000a.uiTypeaheadView .search .subtext{font-size:9px}\\u000a.uiTypeaheadView .search .preCategory{color:#999}\\u000a.uiTypeaheadView .search .seeMore{color:#3b5998;font-size:11px;font-weight:bold;padding-bottom:0;padding-right:7px}\\u000a.uiTypeaheadView .search .question{min-height:14px;padding:3px 30px 3px 6px}\\u000a.uiTypeaheadView .search .question .text{display:inline}\\u000a.uiTypeaheadView .search .question .subtext{display:inline;margin-left:5px;white-space:nowrap}\\u000a.uiTypeaheadView .search .websuggestion{min-height:14px;padding:6px 30px 5px 6px}\\u000a.uiTypeaheadView .search .websuggestion .text{display:inline}\\u000a.uiTypeaheadView .search .websuggestion .subtext{display:inline;margin-left:5px;white-space:nowrap}\\u000a.uiTypeaheadView .search .group .photo, .uiTypeaheadView .search .friendlist .photo{background-color:transparent}\\u000a.uiTypeaheadView .search .text .alias{color:#999;font-weight:normal}\\u000a.uiTypeaheadView .debug{background-color:#fff;border:1px solid #d8dfea}\\u000adiv div.wideSearchTypeaheadView{width:475px}\\u000a.uiTypeaheadView.mainSearchTypeaheadView .search .report{width:15px;height:15px;right:4px;top:4px;position:absolute;background-image:url(https://fbstatic-a.akamaihd.net/rsrc.php/v2/yo/r/yAned58OhqV.png);background-repeat:no-repeat;background-size:auto;background-position:-78px -526px}\\u000a.uiTypeaheadView .search .splitpic{float:left;overflow:hidden;width:24px}\\u000a.uiTypeaheadView .search .splitpics img{left:0;margin-left:-12px;position:static}\\u000a.uiTypeaheadView .search .splitpics .leftpic{margin-right:1px;width:25px}\\u000a.uiTypeaheadView .search .splitpics .toppic{height:24px;margin-bottom:1px}\\u000a.uiTypeaheadView .search .splitpics .bottompic{height:25px}\\u000a.uiTypeaheadView .search .splitpics .toppic img, .uiTypeaheadView .search .splitpics .bottompic img{margin-top:-12px}\\u000a.uiTypeaheadView{display:block;left:0;position:absolute;top:100%;width:100%}\\u000a.uiContextualTypeaheadView{position:static}\\u000a.uiTypeaheadView ul{background:#fff;border:solid;border-width:1px 1px 2px;border-color:#333 #333 #293e6a;overflow:hidden;padding:2px 0}\\u000a.uiTypeaheadView .freeform{border-top-color:#ddd;padding:2px 6px 1px;text-align:center}\\u000a.uiTypeaheadView li{border:solid #fff;border-width:1px 0;color:#333;cursor:pointer;display:block;min-height:1px;padding:0 6px;position:relative}\\u000a.uiTypeaheadView strong{background-color:#d8dfea;color:#3b5998}\\u000adiv.uiTypeaheadView .selected{background-color:#6d84b4;border-color:#3b5998}\\u000a.highContrast div.uiTypeaheadView .selected{border-right-width:10px}\\u000a.uiTypeaheadView .selected, .uiTypeaheadView .selected a, .uiTypeaheadView .selected div, .uiTypeaheadView .selected span{color:#fff !important}\\u000a.uiTypeaheadView .selected strong{background-color:#5670a6}\\u000a.uiTypeaheadView .text, .uiTypeaheadView .subtext, .uiTypeaheadView .category{display:block;overflow:hidden;padding-bottom:2px;text-overflow:ellipsis;white-space:nowrap}\\u000a.uiTypeaheadView .category{color:#666}\\u000a.uiTypeaheadView .subtext{color:#999}\\u000a.uiTypeaheadView .arrow{background:transparent url(https://fbstatic-a.akamaihd.net/rsrc.php/v2/yV/r/IJYgcESal33.png) 0 -413px;display:inline-block;height:7px;margin-left:4px;width:4px}\\u000a.uiTypeaheadView .selected .arrow{background-position:0 -420px}\\u000adiv.uiTypeaheadView li.calltoaction, div.uiTypeaheadView li.browseUpsell{background:#f7f7f7;border-bottom:none;border-color:#ddd;display:block;margin:2px 0 -2px;min-height:1px;padding:8px}\\u000a.uiTypeaheadView li.disabled{color:#999}\\u000adiv.uiTypeaheadView li.calltoaction{text-align:center}\\u000adiv.uiTypeaheadView li.browseMore{background:#fff}\\u000adiv.uiTypeaheadView li.browseUpsell{cursor:default}\\u000a.uiTypeaheadView.typeaheadViewLoading li.browseUpsell{display:none}\\u000adiv.uiTypeaheadView .browseSuccess .browseSignup, div.uiTypeaheadView .browseJoined{display:none}\\u000adiv.uiTypeaheadView .browseSignup, div.uiTypeaheadView .browseSuccess .browseJoined{display:inherit}\\u000adiv.uiTypeaheadView li.calltoaction.selected{background:#6d84b4;border-color:#3b5998}\\u000adiv.typeaheadViewLoading li.calltoaction span.text{visibility:hidden}\\u000adiv.typeaheadViewLoading li.calltoaction{background:#f7f7f7 url(https://fbstatic-a.akamaihd.net/rsrc.php/v2/yb/r/GsNJNwuI-UM.gif) no-repeat 50% 50%}\\u000adiv.typeaheadViewLoading li.calltoaction.selected{background:#6d84b4 url(https://fbstatic-a.akamaihd.net/rsrc.php/v2/y-/r/AGUNXgX_Wx3.gif) no-repeat 50% 50%}\\u000a.uiBlingBox{border-bottom:1px solid #fff;display:inline-block;padding:3px 4px 3px 2px}\\u000a.uiBlingBox:hover{text-decoration:none;background-color:#eceff5;border-bottom:1px solid #e5eaf1}\\u000a.uiBlingBox .text{line-height:11px;vertical-align:text-bottom}\\u000a.uiBlingBoxSm .text{font-size:9px}\\u000a.uiBlingBox .img{margin-right:2px;vertical-align:text-top}\\u000a.uiBlingBoxSm .img{vertical-align:text-bottom}\\u000a.uiBlingBox .emptyBling{margin-right:0 !important}\\u000a.uiBoxGray{background-color:#f2f2f2;border:1px solid #ccc}\\u000a.uiBoxDarkgray{color:#ccc;background-color:#333;border:1px solid #666}\\u000a.uiBoxLightblue{background-color:#edeff4;border:1px solid #d8dfea}\\u000a.uiBoxRed{background-color:#ffebe8;border:1px solid #dd3c10}\\u000a.uiBoxWhite{background-color:#fff;border:1px solid #ccc}\\u000a.uiBoxYellow{background-color:#fff9d7;border:1px solid #e2c822}\\u000a.uiBoxOverlay{background:rgba(255, 255, 255, .85);border:1px solid #3b5998;border:1px solid rgba(59, 89, 153, .65);zoom:1}\\u000a.noborder{border:none}\\u000a.topborder{border-bottom:none;border-left:none;border-right:none}\\u000a.bottomborder{border-left:none;border-right:none;border-top:none}\\u000a.dashedborder{border-style:dashed}\\u000a.uiButton{cursor:pointer;display:inline-block;font-size:11px;font-weight:bold;line-height:13px;padding:2px 6px;text-align:center;text-decoration:none;vertical-align:top;white-space:nowrap}\\u000a.uiButton, .uiButtonSuppressed:active, .uiButtonSuppressed:focus, .uiButtonSuppressed:hover{background-image:url(https://fbstatic-a.akamaihd.net/rsrc.php/v2/yN/r/02SajjNp4g6.png);background-repeat:no-repeat;background-size:auto;background-position:-352px -103px;background-color:#eee;border:1px solid #999;border-bottom-color:#888;box-shadow:0 1px 0 rgba(0, 0, 0, .1)}\\u000a.uiButton + .uiButton{margin-left:4px}\\u000a.uiButton:hover{text-decoration:none}\\u000a.uiButton:active, .uiButtonDepressed{background:#ddd;border-bottom-color:#999;box-shadow:inset 0 1px 1px rgba(0, 0, 0, .2)}\\u000a.uiButton .img{margin-top:2px;overflow:hidden;vertical-align:top}\\u000a.uiButtonLarge .img{margin-top:4px}\\u000a.uiButton .customimg{margin-top:0}\\u000a.uiButtonText, .uiButton input{background:none;border:0;color:#333;cursor:pointer;display:inline-block;font-family:\'lucida grande\',tahoma,verdana,arial,sans-serif;font-size:11px;font-weight:bold;line-height:13px;margin:0;padding:1px 0 2px;white-space:nowrap}\\u000a.uiButtonOverlay, .uiButtonOverlay:hover{background-clip:padding-box;background-color:#fff;background-color:rgba(255, 255, 255, .8);background-image:none;border-color:#a5a5a5;border-color:rgba(0, 0, 0, .35);border-radius:2px}\\u000a.uiButtonOverlay:focus, .uiButtonOverlay:active{background-color:#f9fafc;background-color:rgba(249, 250, 252, .9);border-color:#3b5998;border-color:rgba(59, 89, 152, .5)}\\u000aform.async_saving .uiButton.uiButtonOverlay, .uiButtonOverlay.uiButtonDisabled, .uiButtonOverlay.uiButtonDisabled:active, .uiButtonOverlay.uiButtonDisabled:focus, .uiButtonOverlay.uiButtonDisabled:hover{background-color:#fff;background-color:rgba(255, 255, 255, .8);border-color:#c8c8c8;border-color:rgba(180, 180, 180, .8)}\\u000a.uiButtonOverlay.uiButtonDepressed{background-color:rgba(0, 0, 0, .05)}\\u000a.uiButtonSpecial{background-image:url(https://fbstatic-a.akamaihd.net/rsrc.php/v2/yN/r/02SajjNp4g6.png);background-repeat:no-repeat;background-size:auto;background-position:-352px -299px;background-color:#69a74e;border-color:#3b6e22 #3b6e22 #2c5115}\\u000a.uiButtonSpecial:active{background:#609946;border-bottom-color:#3b6e22}\\u000aform.async_saving .uiButton.uiButtonSpecial, .uiButtonSpecial.uiButtonDisabled, .uiButtonSpecial.uiButtonDisabled:active, .uiButtonSpecial.uiButtonDisabled:focus, .uiButtonSpecial.uiButtonDisabled:hover{background:#b4d3a7;border-color:#9db791}\\u000a.uiButtonConfirm{background-image:url(https://fbstatic-a.akamaihd.net/rsrc.php/v2/yN/r/02SajjNp4g6.png);background-repeat:no-repeat;background-size:auto;background-position:-352px -54px;background-color:#5b74a8;border-color:#29447e #29447e #1a356e}\\u000a.uiButtonConfirm:active{background:#4f6aa3;border-bottom-color:#29447e}\\u000aform.async_saving .uiButton.uiButtonConfirm, .uiButtonConfirm.uiButtonDisabled, .uiButtonConfirm.uiButtonDisabled:active, .uiButtonConfirm.uiButtonDisabled:focus, .uiButtonConfirm.uiButtonDisabled:hover{background:#adbad4;border-color:#94a2bf}\\u000aform.async_saving .uiButton.uiButtonSpecial .uiButtonText, form.async_saving .uiButton.uiButtonSpecial input, form.async_saving .uiButton.uiButtonConfirm .uiButtonText, form.async_saving .uiButton.uiButtonConfirm input, .uiButtonSpecial .uiButtonText, .uiButtonSpecial input, .uiButtonSpecial.uiButtonDisabled .uiButtonText, .uiButtonSpecial.uiButtonDisabled input, .uiButtonConfirm .uiButtonText, .uiButtonConfirm input, .uiButtonConfirm.uiButtonDisabled .uiButtonText, .uiButtonConfirm.uiButtonDisabled input{color:#fff}\\u000aform.async_saving .uiButton, .uiButtonDisabled, .uiButtonDisabled:active, .uiButtonDisabled:focus, .uiButtonDisabled:hover{background:#f2f2f2;border-color:#c8c8c8;box-shadow:none}\\u000aform.async_saving .uiButton .img, .uiButtonDisabled .img{opacity:.5}\\u000aform.async_saving .uiButtonText, form.async_saving .uiButton input, .uiButtonDisabled .uiButtonText, .uiButtonDisabled input{color:#b8b8b8}\\u000aform.async_saving .uiButton, form.async_saving .uiButtonText, form.async_saving .uiButton input, .uiButtonDepressed, .uiButtonDepressed .uiButtonText, .uiButtonDepressed input, .uiButtonDisabled, .uiButtonDisabled .uiButtonText, .uiButtonDisabled input{cursor:default}\\u000a.uiButtonLarge{height:19px}\\u000a.uiButtonLarge, .uiButtonLarge .uiButtonText, .uiButtonLarge input{font-size:13px;line-height:16px}\\u000a.uiButtonSuppressed{background:none;border-color:transparent;box-shadow:none}\\u000a.uiButtonNoText .img{margin-left:-1px;margin-right:-1px}\\u000a.android .uiButtonText, .android .uiButton input{padding:3px 0 1px 1px}\\u000a.uiIconText{display:inline-block;padding-left:21px;position:relative}\\u000alabel.uiIconText{vertical-align:baseline}\\u000a.uiIconText .img{left:0;position:absolute;top:-1px;vertical-align:middle}\\u000a._8u{margin-top:1px}\\u000a._8o, ._8o .img{display:block}\\u000a._8r{margin-right:5px;margin-top:-1px}\\u000a._8s{margin-right:8px}\\u000a._8t{margin-right:10px}\\u000a._29k{display:table-cell;vertical-align:top;width:10000px}\\u000a._29h{float:left;margin-right:5px}\\u000a._29h .img, img._29h, i._29h{display:block}\\u000a._302{float:right}\\u000a._29i{margin-right:5px;margin-top:-1px}\\u000a._29j{margin-top:1px}\\u000a._303{margin-right:8px}\\u000a._304, ._29l{margin-right:10px}\\u000a._29m ._29k{height:50px;vertical-align:middle}\\u000a._29m img._29h, ._29m i._29h, ._29m ._29h .img{height:50px;width:50px}\\u000a._29m ._302{margin-top:14px;padding-left:8px}\\u000a._6a{display:inline-block}\\u000a._6d{vertical-align:bottom}\\u000a._6b{vertical-align:middle}\\u000a._6e{vertical-align:top}\\u000a._5u5j{width:100%}\\u000a._4ki > li{border-width:0 0 0 1px;display:inline-block}\\u000a._4kg > li{border-width:1px 0 0 0}\\u000a._509- > li{vertical-align:top}\\u000a._509_ > li{vertical-align:middle}\\u000a._50a0 > li{vertical-align:bottom}\\u000a.uiList > li:first-child{border-width:0}\\u000a._4ks > li{border-color:#e9e9e9;border-style:solid}\\u000a._4kt > li{border-color:#ccc;border-style:solid}\\u000a._4ku > li{border-color:#aaa;border-style:solid}\\u000a._4of{color:#3b5998;list-style-type:square;margin-left:12px}\\u000a._4ki._703 > li{padding-left:20px;padding-right:20px}\\u000a._4ki._704 > li{padding-left:5px;padding-right:5px}\\u000a._4ki._6-j > li{padding-left:10px;padding-right:10px}\\u000a._4ki._6-i > li{padding-right:0}\\u000a._4kg._704 > li{padding-top:5px;padding-bottom:5px}\\u000a._4kg._6-j > li{padding-top:10px;padding-bottom:10px}\\u000a._4kg._703 > li{padding-top:20px;padding-bottom:20px}\\u000a._4kg._6-i > li{padding-bottom:0}\\u000a._4kg._6-h > li:first-child{padding-top:0}\\u000a._4kg._6-h > li:last-child{padding-bottom:0}\\u000a._4ki._6-h > li:first-child{padding-left:0}\\u000a._4ki._6-h > li:last-child{padding-right:0}\\u000a.uiPhotoThumb{border:1px solid #ccc;display:inline-block}\\u000a.uiPhotoThumb img{display:block;margin:3px}\\u000a.uiPhotoThumb:hover{border:1px solid #3b5998}\\u000a.loading.uiPhotoThumb{background:url(https://fbstatic-a.akamaihd.net/rsrc.php/v2/yb/r/GsNJNwuI-UM.gif) no-repeat center center}\\u000a.loading.uiPhotoThumb img{opacity:.3}\\u000a._rv{height:100px;width:100px}\\u000a._rw{height:50px;width:50px}\\u000a._s0:only-child{display:block}\\u000a._54rv{height:16px;width:16px}\\u000a._54ru{height:32px;width:32px}\\u000a._54rt{height:48px;width:48px}\\u000a._54rs{height:56px;width:56px}\\u000a._ry{height:24px;width:24px}\\u000a.uiMenu{background-color:#fff;padding:3px 0 4px;overflow-y:auto}\\u000a.uiMenuItem .itemAnchor{border:solid #fff;border-width:1px 0;color:#111;display:block;font-weight:normal;line-height:16px;padding:1px 16px 1px 22px;text-decoration:none}\\u000a.uiMenuItem a:hover{text-decoration:none}\\u000a.uiMenuItem a:active, .uiMenuItem a:focus{background-color:#6d84b4;border-color:#3b5998;color:#fff;outline:none}\\u000a.uiMenu .checked .itemAnchor{background:url(https://fbstatic-a.akamaihd.net/rsrc.php/v2/y9/r/6NgdP4PZyfY.png) left 4px no-repeat;font-weight:bold}\\u000a.uiMenu .checked a:active, .uiMenu .checked a:focus{background-color:#6d84b4;background-position:left -56px}\\u000a.uiMenuItem{white-space:nowrap}\\u000a.uiMenuItem .itemLabel{display:block;max-width:300px;text-overflow:ellipsis;white-space:nowrap}\\u000a.uiMenuItem .itemWithIcon .itemLabel, .uiMenuItem .itemIcon{display:inline-block;vertical-align:middle}\\u000a.uiMenuItem .itemLabel .menuIcon{vertical-align:sub}\\u000a.uiMenu .uiMenuItemPlus{position:relative;zoom:1}\\u000a.uiMenu .uiMenuItemPlusIcon{display:block;left:8px;position:absolute;top:6px;background-image:url(https://fbstatic-a.akamaihd.net/rsrc.php/v2/yN/r/02SajjNp4g6.png);background-repeat:no-repeat;background-size:auto;background-position:-35px -124px;overflow:hidden;width:8px;height:8px}\\u000a.uiMenu .selected .uiMenuItemPlusIcon{background-image:url(https://fbstatic-a.akamaihd.net/rsrc.php/v2/yN/r/02SajjNp4g6.png);background-repeat:no-repeat;background-size:auto;background-position:-27px -124px}\\u000a.uiMenuItemBigLabel .itemLabel{overflow:hidden;min-width:300px}\\u000a.uiMenuItem .disabledAnchor, .uiMenu .disabled .itemAnchor{display:none}\\u000a.uiMenu .disabled .disabledAnchor{display:block}\\u000a.uiMenu .disabled .itemAnchor{opacity:.55}\\u000a.uiMenuItemGroup .groupTitle{margin:0 16px 3px 22px}\\u000a.uiMenuSeparator{border-bottom:1px solid #ddd;margin:5px 7px 6px;padding-top:1px}\\u000a.uiMenuContainer .uiMenu{position:relative}\\u000a.openToggler{z-index:100}\\u000a.uiToggleFlyout, .toggleTargetClosed, .openToggler .uiToggleFlyout .uiToggleFlyout{display:none}\\u000a.openToggler .uiToggleFlyout, .openToggler .uiToggleFlyout .openToggler .uiToggleFlyout{display:block}\\u000a.hideToggler{border:0;height:0;opacity:0;overflow:hidden;padding:0;pointer-events:none;position:absolute;width:0}\\u000a.uiSelector{max-width:200px;vertical-align:top}\\u000a.uiSelector .wrap{position:relative}\\u000a.uiSelector select, .uiSelector .submitButton, .no_js form .uiSelectorButton{display:none}\\u000a.no_js form .uiSelector select, .no_js form .uiSelector .submitButton{display:inline}\\u000a.uiSelector .uiButton, .uiSelector .uiButton:active, .uiSelector .uiButton:focus, .uiSelector .uiButton:hover{background-image:none}\\u000a.uiSelector .uiSelectorButton{vertical-align:top}\\u000a.uiSelector .uiSelectorButton:active{background-color:#ddd}\\u000a.uiSelector .openToggler .uiSelectorButton, .uiSelector .openToggler .uiSelectorButton:active, .uiSelector .openToggler .uiSelectorButton:focus, .uiSelector .openToggler .uiSelectorButton:hover{background-color:#6d84b4;border:1px solid #3b5998;border-bottom-color:#6d84b4;box-shadow:none}\\u000a.uiSelectorNormal .uiSelectorChevronOnly, .uiSelectorNormal .uiSelectorChevronOnly:active, .uiSelectorNormal .uiSelectorChevronOnly:focus, .uiSelectorNormal .uiSelectorChevronOnly:hover{height:20px;padding:0}\\u000a.uiSelectorNormal .uiSelectorButton, .uiSelectorNormal .uiSelectorButton:active, .uiSelectorNormal .uiSelectorButton:focus, .uiSelectorNormal .uiSelectorButton:hover, .uiSelectorNormal .uiButtonSuppressed:active, .uiSelectorNormal .uiButtonSuppressed:focus, .uiSelectorNormal .uiButtonSuppressed:hover{background-image:url(https://fbstatic-a.akamaihd.net/rsrc.php/v2/yN/r/02SajjNp4g6.png);background-repeat:no-repeat;background-size:auto;background-position:right -5px;max-width:169px;padding-right:23px}\\u000a.uiSelectorNormal .uiButtonDisabled, .uiSelectorNormal a.uiButtonDisabled:active, .uiSelectorNormal a.uiButtonDisabled:focus, .uiSelectorNormal a.uiButtonDisabled:hover{background-image:url(https://fbstatic-a.akamaihd.net/rsrc.php/v2/yN/r/02SajjNp4g6.png);background-repeat:no-repeat;background-size:auto;background-position:right -152px}\\u000a.uiSelectorNormal .uiButtonSuppressed.uiButtonDisabled{background-image:url(https://fbstatic-a.akamaihd.net/rsrc.php/v2/yN/r/02SajjNp4g6.png);background-repeat:no-repeat;background-size:auto;background-position:right -348px}\\u000a.uiSelectorNormal .uiButtonOverlay, .uiSelectorNormal .uiButtonOverlay:active, .uiSelectorNormal .uiButtonOverlay:focus, .uiSelectorNormal .uiButtonOverlay:hover, .uiSelectorNormal .uiSelectorButton:active, .uiSelectorNormal .uiButtonSuppressed{background-image:url(https://fbstatic-a.akamaihd.net/rsrc.php/v2/yN/r/02SajjNp4g6.png);background-repeat:no-repeat;background-size:auto;background-position:right -251px}\\u000a.highContrast .uiSelectorButton::after{content:\'\\u005c0020 \\u005c25BC\'}\\u000a.uiSelectorNormal .openToggler .uiSelectorButton, .uiSelectorNormal .openToggler .uiSelectorButton:active, .uiSelectorNormal .openToggler .uiSelectorButton:focus, .uiSelectorNormal .openToggler .uiSelectorButton:hover, .uiSelectorNormal .openToggler .uiButtonSuppressed, .uiSelectorNormal .openToggler .uiButtonSuppressed:active, .uiSelectorNormal .openToggler .uiButtonSuppressed:focus, .uiSelectorNormal .openToggler .uiButtonSuppressed:hover{background-image:url(https://fbstatic-a.akamaihd.net/rsrc.php/v2/yN/r/02SajjNp4g6.png);background-repeat:no-repeat;background-size:auto;background-position:right -201px}\\u000a.uiSelectorNormal .uiSelectorButton .uiButtonText{max-width:169px;overflow:hidden;text-overflow:ellipsis;vertical-align:top}\\u000a.uiSelectorNormal .openToggler .uiSelectorButton .uiButtonText{color:#fff}\\u000a.uiSelectorMenuWrapper{bottom:auto;left:0;margin:-1px 0 30px;max-width:340px;min-width:100%;position:absolute;right:auto;top:100%;z-index:-1}\\u000a.uiSelectorRight .uiSelectorMenuWrapper{left:auto;right:0}\\u000a.uiSelectorMenuWrapper .loading{padding:5px 20px}\\u000a.uiSelectorMenuWrapper .loading span{background:url(https://fbstatic-a.akamaihd.net/rsrc.php/v2/yb/r/GsNJNwuI-UM.gif) no-repeat 0 0;display:inline-block;height:11px;margin:0 auto;width:16px}\\u000a.uiSelector .uiMenu{border:1px solid #777;border-bottom:2px solid #293e6a}\\u000a.uiSelectorContextualLayer .uiSelector{margin:0;max-width:none;position:relative}\\u000a.uiSelectorContextualLayer .uiContextualLayerAboveLeft .uiSelector, .uiSelectorContextualLayer .uiContextualLayerAboveRight .uiSelector{top:2px}\\u000a.uiSelectorContextualLayer .uiContextualLayerBelowLeft .uiSelector, .uiSelectorContextualLayer .uiContextualLayerBelowRight .uiSelector{top:-1px}\\u000a.uiSelectorContextualLayer .uiSelectorMenuWrapper{position:static;margin:0;min-width:auto}\\u000a.uiSelectorContextualLayer .uiSelector .uiSelectorButton{position:absolute}\\u000a.uiSelectorContextualLayer .uiContextualLayerAboveLeft .uiSelector .uiSelectorButton, .uiSelectorContextualLayer .uiContextualLayerAboveRight .uiSelector .uiSelectorButton{border:1px solid #3b5998;border-top-color:#6d84b4;margin-top:-2px;top:100%}\\u000a.uiSelectorContextualLayer .uiContextualLayerBelowLeft .uiSelector .uiSelectorButton, .uiSelectorContextualLayer .uiContextualLayerBelowRight .uiSelector .uiSelectorButton{bottom:100%;margin-bottom:-1px}\\u000a.uiSelectorContextualLayer .uiContextualLayerAboveLeft .uiSelector .uiSelectorButton, .uiSelectorContextualLayer .uiContextualLayerBelowLeft .uiSelector .uiSelectorButton{left:0}\\u000a.uiSelectorContextualLayer .uiContextualLayerAboveRight .uiSelector .uiSelectorButton, .uiSelectorContextualLayer .uiContextualLayerBelowRight .uiSelector .uiSelectorButton{right:0}\\u000a.uiStream .uiStreamMessage{color:#000;font-size:11px;font-weight:normal;margin:0 0 5px 0}\\u000a.uiStream .uiStreamHeadline{margin-bottom:0;outline:none}\\u000a.uiStreamHeadline .uiLikePage{float:right;margin:0 -15px 0 15px}\\u000a.uiStreamHeadline .uiJoinGroupButton{margin:-5px 30px 0 0}\\u000a.uiLikePage.newChevronButton{margin-right:-10px}\\u000a.uiStreamHeadlineWithLikeButton{min-height:31px}\\u000a.uiStream .uiStreamPassive{margin-bottom:5px}\\u000a.Locale_zh_CN .uiStream .uiStreamMessage, .Locale_zh_TW .uiStream .uiStreamMessage, .Locale_zh_HK .uiStream .uiStreamMessage{font-size:13px}\\u000a.Locale_ja_JP .uiStream .uiStreamMessage{font-size:12px}\\u000a.uiStreamMessage, .uiAttachmentTitle, .uiAttachmentDesc{word-break:break-word;word-wrap:break-word}\\u000a.uiStreamMessage .actorDescription{margin-bottom:3px}\\u000a.uiStreamMessage .suggestionBio .actorDescription{padding-bottom:0}\\u000a.uiStreamMessage .suggestionBio{width:410px}\\u000adiv.uiAttachmentTitle{color:#333}\\u000a.permalink_stream{position:relative}\\u000a.uiStreamStory .mainWrapper{margin:0 35px 14px 0;padding-top:14px}\\u000a.uiStreamStory .actorPhoto{margin-bottom:14px;margin-top:14px}\\u000a.uiStreamStory .storyContent .storyInnerContent{margin-left:60px}\\u000a.uiStreamStory .uiStreamSubstory .storyInnerContentSmallPic{margin-left:40px}\\u000a.uiStream .uiStreamHide{margin-top:18px;position:absolute;right:0;top:0}\\u000a.uiStream .substoryHideSelector{float:right;margin:-2px 0 0 0}\\u000a.holdoutAdStory{display:none}\\u000a.holdoutAdStory:first-child + .uiStreamStory{border-top:none}\\u000a.uiStreamStory{padding:0;position:static}\\u000a.homeWiderContent .uiStreamStory{margin-left:-18px;padding-left:18px}\\u000a.uiStream .uiStreamHide .uiSelectorButton, .uiStream a.uiCloseButton.uiStreamHide, .uiStream .uiStreamStory:hover .uiStreamSubstory .uiStreamHide .uiSelectorButton{left:-9999px;position:absolute}\\u000a.uiStream .uiStreamStory:hover .uiStreamHide .uiSelectorButton, .uiStream .uiStreamStory:hover a.uiCloseButton.uiStreamHide, .uiStream .uiStreamStory .uiStreamSubstory:hover .uiStreamHide .uiSelectorButton, .uiStream .uiStreamStory .uiStreamHide .openToggler .uiSelectorButton, .uiStream .uiStreamStory:hover .uiStreamSubstory .uiStreamHide .openToggler .uiSelectorButton{left:auto}\\u000a.uiStream a.uiCloseButton.uiStreamHide.alwaysShowHideButton, .uiStream .uiSelectorButton:focus{left:auto !important}\\u000a.uiStream a.uiCloseButton.uiStreamHide.alwaysShowHideButton.xButtonInTab{background-image:url(https://fbstatic-a.akamaihd.net/rsrc.php/v2/yq/r/p90r_90CPK8.png);background-repeat:no-repeat;background-size:auto;background-position:-178px -102px;height:19px;margin-top:-1px;width:18px}\\u000a.uiStream a.uiCloseButton.uiStreamHide.alwaysShowHideButton.xButtonInTab:hover{background-image:url(https://fbstatic-a.akamaihd.net/rsrc.php/v2/yq/r/p90r_90CPK8.png);background-repeat:no-repeat;background-size:auto;background-position:-197px -102px}\\u000a.uiStreamStory:first-child a.uiCloseButton.uiStreamHide.alwaysShowHideButton.xButtonInTab, .uiStreamStory:first-child a.uiCloseButton.uiStreamHide.alwaysShowHideButton.xButtonInTab:hover{margin-top:0}\\u000a.uiStreamHide .uiStreamContextButton, .uiStreamStory:hover .uiStreamSubstory .uiStreamHide .uiStreamContextButton{left:-9999px;position:absolute}\\u000a.uiStreamStory:hover .uiStreamHide .uiStreamContextButton, .uiStreamStory .uiStreamSubstory:hover .uiStreamHide .uiStreamContextButton, .uiStreamStory .uiStreamHide.openToggler .uiStreamContextButton, .uiStreamStory:hover .uiStreamSubstory .uiStreamHide.openToggler .uiStreamContextButton{left:auto}\\u000a.uiStreamStory .uiStreamContextButton:focus{left:auto !important}\\u000a.uiStream .uiAttachmentDesc, .uiStream .uiStreamPassive, .uiStream .uiStreamRobotextBeforeMessage, .uiStream .uiAdminAttribution{color:gray}\\u000a.uiStream .tagIcon{vertical-align:bottom}\\u000a.uiStream .text_exposed_link{display:block;font-size:11px;padding-left:0;padding-top:4px}\\u000a.storyContent{padding-bottom:2px;position:relative}\\u000a.uiStream .uiStreamStoryHide .storyContent{display:none}\\u000a.uiStream .uiStreamStoryHidden{display:none}\\u000a.uiStreamAttachments .external.photoLink{overflow:hidden;position:relative}\\u000a.uiStreamAttachments .external .linkOverlay{background:url(https://fbstatic-a.akamaihd.net/rsrc.php/v2/yj/r/QijIVO3ZIrO.png) repeat-x 0 0;bottom:0;color:#fff;height:36px;left:0;position:absolute;right:0}\\u000a.uiStreamAttachments .external .shareIcon{bottom:5px;height:16px;position:absolute;right:5px;width:16px}\\u000a.uiStreamAttachments .profilePhotoAttachment, .uiStreamAttachments .external img{max-height:90px;max-width:90px}\\u000a.uiStreamAttachments.streamAttachmentWidePhoto .external img{max-height:210px;max-width:210px}\\u000a.uiStream .uiAttachmentDetails{color:#333}\\u000a.uiAttachmentInline .uiAttachmentTitle, .uiAttachmentInline .uiAttachmentDesc{display:inline}\\u000a.uiStreamMessage .actorName, .uiStreamMessage .passiveName{font-weight:bold}\\u000a.uiStreamMessage .wallArrowIcon{background-image:url(https://fbstatic-a.akamaihd.net/rsrc.php/v2/yN/r/02SajjNp4g6.png);background-repeat:no-repeat;background-size:auto;background-position:-152px -141px;height:9px;margin:0 5px;width:11px}\\u000a.uiAttachmentNoMedia{border-left:2px solid #ccc}\\u000a.uiAttachmentMedia{float:left}\\u000a.uiAttachmentMediaFiles{outline:none;width:100%}\\u000a.uiStreamAttachments .text_exposed .truncatedMediaInfo{clear:both;display:block;padding-left:0;width:auto}\\u000a.uiStreamAttachments .truncatedMediaItem{display:none}\\u000a.uiStreamAttachments .text_exposed .truncatedMediaItem{display:block}\\u000a.uiStreamAttachments .truncatedMediaInfo{display:table;zoom:1}\\u000a.uiStreamCollapsed{border-top:1px solid #eee}\\u000a.uiStreamSubstories li.showAll{line-height:15px;padding:0}\\u000a.uiStreamSubstories li.showAll a{color:#6d84b4;display:block;padding:8px 0 0}\\u000a.uiStreamSubstories .uiUfi{width:350px}\\u000a.uiStream .uiStreamSeparator{background-color:#e9e9e9;border:0;height:7px;margin:6px 0;padding:0;text-align:center}\\u000a.uiStream .uiStreamSeparatorText{background-color:#fff;padding:0 5px;position:relative;top:-4px}\\u000a.uiStream .suppressBorder{border-top:0}\\u000a.uiStreamEdgeStoryLineTx{background-color:#fff;color:#ccc;left:32px;padding:0 8px;position:relative;top:-20px}\\u000a.uiStreamEdgeStoryLine hr{background:#e5e5e5;margin:8px 0 10px 0}\\u000a.uiStreamEdgeStoryLineWithLabel{height:23px;padding-top:1px}\\u000a.uiStreamFooter, .uiStreamSource, .uiStreamSource a, .uiStreamSource .uiLinkSubtle, .uiStreamFooter .uiStreamSource a, .uiStreamFooter .uiStreamSource .uiLinkSubtle, .uiStreamAdditionalLogging, .uiStreamSponsoredLink, .uiStreamPrivacyContainer{color:#999}\\u000a.uiStreamNub{border-bottom:1px solid #c2cbe1;margin-top:2px}\\u000ahtml .uiStreamFooter{display:table-cell}\\u000a.uiStreamFooter{width:10000px}\\u000a.uiStreamHomepage .uiStreamStory:first-child{margin-top:-6px}\\u000a.uiStreamHomepage .uiStreamStory:first-child .actorPhoto{margin-top:18px}\\u000a.uiStreamHomepage .uiStreamStory:first-child .mainWrapper{padding-top:18px}\\u000a.uiStreamActionFooter .UIActionLinks_bottom a{color:#3b5998}\\u000a.uiStream .uiStreamStory .highlightSelector{margin:-2px 10px 0 0}\\u000a.uiStream .uiStreamStory .substoryHideSelector{margin:-2px 0 0}\\u000a.permalink_stream .highlightSelector .uiSelectorMenuWrapper, .uiStream .uiStreamStory .highlightSelector .uiSelectorMenuWrapper{margin:-3px 1px 0 0}\\u000a.permalink_stream .fbStreamPermalinkHeader .highlightSelector{float:right;margin-right:0;margin-top:0}\\u000a.permalink_stream .highlightSelector .highlightSelectorButton{background-image:url(https://fbstatic-a.akamaihd.net/rsrc.php/v2/yq/r/p90r_90CPK8.png);background-repeat:no-repeat;background-size:auto;background-position:-741px -56px;border:0;box-shadow:none;display:inline-block;height:21px;line-height:21px;overflow:hidden;padding:0;text-indent:50px;width:21px}\\u000a.permalink_stream .bigHideButton .highlightSelectorButton{background-image:url(https://fbstatic-a.akamaihd.net/rsrc.php/v2/yq/r/p90r_90CPK8.png);background-repeat:no-repeat;background-size:auto;background-position:-771px -27px}\\u000a.uiStream .uiStreamStory .highlightSelector .uiSelectorButton, .uiStream .highlightSelector .highlightSelectorButton{background-image:url(https://fbstatic-a.akamaihd.net/rsrc.php/v2/yq/r/p90r_90CPK8.png);background-repeat:no-repeat;background-size:auto;background-position:-613px -56px}\\u000a.uiStream .bigHideButton .highlightSelectorButton{background-image:url(https://fbstatic-a.akamaihd.net/rsrc.php/v2/yq/r/p90r_90CPK8.png);background-repeat:no-repeat;background-size:auto;background-position:-613px -27px}\\u000a.highlightEditSelectorButton{background-image:url(https://fbstatic-a.akamaihd.net/rsrc.php/v2/yq/r/p90r_90CPK8.png);background-repeat:no-repeat;background-size:auto;background-position:-677px -56px}\\u000a.bigHideButton .highlightEditSelectorButton{background-image:url(https://fbstatic-a.akamaihd.net/rsrc.php/v2/yq/r/p90r_90CPK8.png);background-repeat:no-repeat;background-size:auto;background-position:-692px -27px}\\u000a.uiStream .uiStreamStory .highlightSelector .uiSelectorButton, .uiStream .highlightSelector .highlightSelectorButton, .highlightEditSelectorButton{border:0;box-shadow:none;display:inline-block;height:24px;line-height:24px;overflow:hidden;padding:0;text-indent:50px;width:21px}\\u000a.permalink_stream .highlightSelector .highlightSelectorButton, .permalink_stream .highlightSelector .highlightSelectorButton:active, .permalink_stream .highlightSelector .highlightSelectorButton:focus, .permalink_stream .highlightSelector .highlightSelectorButton:hover{background-color:transparent;border:0;height:21px;padding:0;width:21px}\\u000a.permalink_stream .bigHideButton .highlightSelectorButton, .permalink_stream .bigHideButton .highlightSelectorButton:active, .permalink_stream .bigHideButton .highlightSelectorButton:focus, .permalink_stream .bigHideButton .highlightSelectorButton:hover{height:25px;width:26px}\\u000a.uiStream .uiStreamStory .highlightSelector .uiSelectorButton, .uiStream .uiStreamStory .highlightSelector .uiSelectorButton:active, .uiStream .uiStreamStory .highlightSelector .uiSelectorButton:focus, .uiStream .uiStreamStory .highlightSelector .uiSelectorButton:hover, .uiStream .highlightSelector .highlightSelectorButton, .uiStream .highlightSelector .highlightSelectorButton:active, .uiStream .highlightSelector .highlightSelectorButton:focus, .uiStream .highlightSelector .highlightSelectorButton:hover, .highlightSelector .highlightEditSelectorButton{background-color:transparent;border:0;height:24px;padding:0;width:21px}\\u000a.uiStream .uiStreamStory .bigHideButton .uiSelectorButton, .uiStream .uiStreamStory .bigHideButton .uiSelectorButton:active, .uiStream .uiStreamStory .bigHideButton .uiSelectorButton:focus, .uiStream .uiStreamStory .bigHideButton .uiSelectorButton:hover, .uiStream .bigHideButton .highlightSelectorButton, .uiStream .bigHideButton .highlightSelectorButton:active, .uiStream .bigHideButton .highlightSelectorButton:focus, .uiStream .bigHideButton .highlightSelectorButton:hover, .bigHideButton .highlightEditSelectorButton{height:28px;width:26px}\\u000a.permalink_stream .highlightSelector .highlightSelectorButton:hover{background-image:url(https://fbstatic-a.akamaihd.net/rsrc.php/v2/yq/r/p90r_90CPK8.png);background-repeat:no-repeat;background-size:auto;background-position:-762px -56px;border:0;padding:0}\\u000a.permalink_stream .bigHideButton .highlightSelectorButton:hover{background-image:url(https://fbstatic-a.akamaihd.net/rsrc.php/v2/yq/r/p90r_90CPK8.png);background-repeat:no-repeat;background-size:auto;background-position:-797px -27px}\\u000a.uiStream .uiStreamStory .highlightSelector .uiSelectorButton:hover, .highlightSelector .highlightSelectorButton:hover{background-image:url(https://fbstatic-a.akamaihd.net/rsrc.php/v2/yq/r/p90r_90CPK8.png);background-repeat:no-repeat;background-size:auto;background-position:-634px -56px;border:0;padding:0}\\u000a.uiStream .uiStreamStory .bigHideButton .uiSelectorButton:hover, .bigHideButton .highlightSelectorButton:hover{background-image:url(https://fbstatic-a.akamaihd.net/rsrc.php/v2/yq/r/p90r_90CPK8.png);background-repeat:no-repeat;background-size:auto;background-position:-639px -27px}\\u000a.highlightSelector .highlightEditSelectorButton:hover{background-image:url(https://fbstatic-a.akamaihd.net/rsrc.php/v2/yq/r/p90r_90CPK8.png);background-repeat:no-repeat;background-size:auto;background-position:-698px -56px;border:0;padding:0}\\u000a.bigHideButton .highlightEditSelectorButton:hover{background-image:url(https://fbstatic-a.akamaihd.net/rsrc.php/v2/yq/r/p90r_90CPK8.png);background-repeat:no-repeat;background-size:auto;background-position:-718px -27px}\\u000a.permalink_stream .highlightSelector .openToggler .highlightSelectorButton, .permalink_stream .highlightSelector.openToggler .highlightSelectorButton, .permalink_stream .highlightSelector .openToggler .highlightSelectorButton:hover{background-image:url(https://fbstatic-a.akamaihd.net/rsrc.php/v2/yq/r/p90r_90CPK8.png);background-repeat:no-repeat;background-size:auto;background-position:-783px -56px;background-color:transparent;border:0;height:21px;padding:0;width:21px}\\u000a.permalink_stream .bigHideButton .openToggler .highlightSelectorButton, .permalink_stream .bigHideButton.openToggler .highlightSelectorButton, .permalink_stream .bigHideButton .openToggler .highlightSelectorButton:hover{background-image:url(https://fbstatic-a.akamaihd.net/rsrc.php/v2/yq/r/p90r_90CPK8.png);background-repeat:no-repeat;background-size:auto;background-position:-823px -27px;height:25px;width:26px}\\u000a.uiStream .uiStreamStory .highlightSelector .openToggler .uiSelectorButton, .uiStream .uiStreamStory .highlightSelector .openToggler .uiSelectorButton:hover, .highlightSelector .openToggler .highlightSelectorButton, .highlightSelector.openToggler .highlightSelectorButton, .permalink_stream .highlightSelector .openToggler .highlightEditSelectorButton:hover, .highlightSelector .openToggler .highlightEditSelectorButton, .highlightSelector.openToggler .highlightEditSelectorButton{background-image:url(https://fbstatic-a.akamaihd.net/rsrc.php/v2/yq/r/p90r_90CPK8.png);background-repeat:no-repeat;background-size:auto;background-position:-655px -56px;background-color:transparent;border:0;height:24px;padding:0;width:21px}\\u000a.uiStream .uiStreamStory .bigHideButton .openToggler .uiSelectorButton, .uiStream .uiStreamStory .bigHideButton .openToggler .uiSelectorButton:hover, .bigHideButton .openToggler .highlightSelectorButton, .bigHideButton.openToggler .highlightSelectorButton, .permalink_stream .bigHideButton .openToggler .highlightEditSelectorButton:hover, .bigHideButton .openToggler .highlightEditSelectorButton, .openToggler.bigHideButton .highlightEditSelectorButton{background-image:url(https://fbstatic-a.akamaihd.net/rsrc.php/v2/yq/r/p90r_90CPK8.png);background-repeat:no-repeat;background-size:auto;background-position:-665px -27px;height:28px;width:26px}\\u000a.highlightSelector .openToggler .highlightEditSelectorButton, .highlightSelector.openToggler .highlightEditSelectorButton, .permalink_stream .highlightSelector .openToggler .highlightEditSelectorButton:hover{background-image:url(https://fbstatic-a.akamaihd.net/rsrc.php/v2/yq/r/p90r_90CPK8.png);background-repeat:no-repeat;background-size:auto;background-position:-719px -56px}\\u000a.bigHideButton .openToggler .highlightEditSelectorButton, .bigHideButton.openToggler .highlightEditSelectorButton, .permalink_stream .bigHideButton .openToggler .highlightEditSelectorButton:hover{background-image:url(https://fbstatic-a.akamaihd.net/rsrc.php/v2/yq/r/p90r_90CPK8.png);background-repeat:no-repeat;background-size:auto;background-position:-744px -27px}\\u000a.uiStreamBoulderThemeAgg .substoryActorPic img, .uiStreamBoulderThemeAgg .uiStreamInlineAction .inlineActionInputPic{height:32px;width:32px}\\u000a.uiStreamBoulderThemeAgg .storyContent{padding-bottom:2px}\\u000a.uiStreamBoulderThemeAgg .uiStreamSubstory{margin:0;padding:5px 0}\\u000a.uiStreamSubstories .uiStreamSubstory div.storyContent{padding-bottom:2px}\\u000a.uiStreamBoulderThemeAgg .uiStreamSubstories > li:first-child .uiStreamSubstory{padding-top:0}\\u000a.uiStreamStory .uiStreamSubstory .storyContent{padding:0}\\u000a.uiStreamLoader{text-align:center}\\u000a.uiStreamBoulderThemeAgg .uiStreamSubstories{margin-top:0;padding-top:0}\\u000a.uiStreamBoulderThemeAgg .uiStreamSubstories .uiStreamShowAll{border-bottom:0;text-align:left}\\u000a.uiStreamBoulderThemeAgg .uiStreamSubstories .uiStreamShowAll span{font-weight:normal}\\u000a.uiStreamBoulderThemeAgg .inlineSubstory .uiStreamSubstory{border-bottom:1px solid #e5e5e5;padding-bottom:10px}\\u000a.uiStreamBoulderThemeAgg .uiStreamAttachments .external{display:block;margin:0;padding-bottom:5px;padding-right:10px}\\u000a.uiStreamBoulderThemeAgg .uiStreamAttachments .external img{max-height:100px;max-width:120px}\\u000a.uiStreamInlineTextarea{display:block;height:19px;width:100%}\\u000a.uiStreamShareLikePageBox{border-top:1px solid #e9e9e9;padding-top:10px}\\u000a.uiStreamShareLikePageBox .uiPageLikeButton{margin-top:4px}\\u000a.uiStreamSubstory .storyInnerContent .rfloat.PageLikeButton, .uiStreamSubstory .storyInnerContent .rfloat .PageLikeButton{margin-right:25px}\\u000a.uiStreamHide .highlightEditSelectorButton.uiStreamContextButton.alwaysShowHideButton, .uiStreamHide .highlightSelectorButton.uiStreamContextButton.alwaysShowHideButton, .uiStreamSubstory .uiStreamHide.substoryHideSelector .uiStreamContextButton.alwaysShowHideButton{background-image:url(https://fbstatic-a.akamaihd.net/rsrc.php/v2/yq/r/p90r_90CPK8.png);background-repeat:no-repeat;background-size:auto;background-position:-533px -18px;height:7px;left:-4px;margin-top:14px;opacity:.5;width:10px}\\u000a.uiStreamStory .highlightEditSelectorButton.uiStreamContextButton.alwaysShowHideButton:hover, .uiStreamStory .highlightSelectorButton.uiStreamContextButton.alwaysShowHideButton:hover, .uiStreamSubstory .uiStreamHide.substoryHideSelector .uiStreamContextButton.alwaysShowHideButton:hover, .uiStreamStory .openToggler .highlightEditSelectorButton.uiStreamContextButton.alwaysShowHideButton, .uiStreamStory .openToggler .highlightSelectorButton.uiStreamContextButton.alwaysShowHideButton, .uiStreamSubstory .openToggler.uiStreamHide.substoryHideSelector .uiStreamContextButton.alwaysShowHideButton{left:-4px;opacity:.8}\\u000a.uiStreamSubstory .uiStreamHide.substoryHideSelector{margin:-12px 10px 0}\\u000a.uiTextareaNoResize{resize:none}\\u000a.uiTextareaAutogrow{overflow:hidden}\\u000a.fss{font-size:9px}\\u000a.fsm{font-size:11px}\\u000a.fsl{font-size:13px}\\u000a.fsxl{font-size:16px}\\u000a.fsxxl{font-size:18px}\\u000a.fwn{font-weight:normal}\\u000a.fwb{font-weight:bold}\\u000a.fcb{color:#333}\\u000a.fcg{color:gray}\\u000a.fcw{color:#fff}\\u000a.uiUfiAddComment .actorPic{float:left;margin-right:6px}\\u000a.uiUfiAddComment .commentArea{padding:0 !important}\\u000a.uiUfiAddComment .commentBox{padding:0 8px 0 0}\\u000a.uiUfiAddComment .commentBtn{float:right}\\u000a.uiUfiAddComment .textBox{display:block;margin:0;width:100%}\\u000a.child_is_active .uiUfiAddCommentCollapsed .textBox, .child_was_focused .commentArea .inlineShareBox .textBox, .uiUfiAddComment .textBox{height:29px}\\u000a.uiUfiAddCommentCollapsed .textBox{height:14px}\\u000a.hidden_add_comment .uiUfiAddComment, .uiUfiAddCommentCollapsed .actorPic, .uiUfiAddComment .commentBtn, .uiUfiAddCommentCollapsed .sendOnEnterTip, .uiUfiAddCommentCollapsed .commentBoxSubtitle, .commentUndoTip{display:none}\\u000a.child_is_active .uiUfiAddCommentCollapsed .actorPic, .child_is_active .uiUfiAddComment .commentBtn, .child_is_active .sendOnEnterTip, .child_is_active .commentBoxSubtitle, .commentUndone .child_is_focused .commentUndoTip{display:block}\\u000a.commentUndone .commentBoxSubtitle, .commentUndone .sendOnEnterTip{display:none}\\u000a.uiUfiAddTip{padding-top:1px;padding-left:0}\\u000a.collapsed_comments .uiUfi{display:none}\\u000a.uiUfi{padding-top:2px;width:398px;margin:0}\\u000a.uiUfi .ufiItem{background-color:#edeff4;margin-top:1px;padding:5px 5px 4px}\\u000aul.uiUfi .ufiItem{border-bottom:1px solid #d2d9e7}\\u000a.uiUfi .uiUfiSpamItem{background-color:#f6f7fa}\\u000a.uiUfi .uiUfiRemovedSpamItem{background-color:#edeff4}\\u000a.uiUfi .uiUfiSpamItem .actorName, .uiUfi .uiUfiSpamItem .actorPic, .uiUfi .uiUfiSpamItem .commentBody, .uiUfi .uiUfiSpamItem .uiLinkSubtle{opacity:.5}\\u000a.uiUfi .uiUfiUnseenItem{border-left:2px solid #a8b2ce;padding-left:3px}\\u000a.uiUfi .highlightComment{background-color:#fff9d7}\\u000a.uiUfi .ufiNub{margin-bottom:-2px;margin-top:0}\\u000a.uiUfi .ufiNub i{background-image:url(https://fbstatic-a.akamaihd.net/rsrc.php/v2/y7/r/UvyvLtJTQzO.png);background-repeat:no-repeat;background-size:auto;background-position:0 0;display:block;height:5px;margin-left:17px;width:9px}\\u000a.uiUfi .uiUfiViewAll .uiLinkButton, .uiUfi .uiUfiViewReposts a{display:block}\\u000a.uiUfi .uiUfiWrapViewAll .uiLinkButton input{text-align:left;white-space:normal}\\u000a.unclickable{position:relative}\\u000a.unclickable .unclickableMask{background:url(https://fbstatic-a.akamaihd.net/rsrc.php/v2/y4/r/-PAXP-deijE.gif) repeat;height:100%;left:0;position:absolute;top:0;width:100%;z-index:10}\\u000a.uiVideoThumb{border:0;display:inline-block;overflow:hidden;position:relative}\\u000a.uiVideoThumb img{display:inline-block;max-height:130px;max-width:130px}\\u000a.uiVideoThumb img[width]{max-width:auto}\\u000a.uiVideoThumb i{background:url(https://fbstatic-a.akamaihd.net/rsrc.php/v2/yG/r/Gj2ad6O09TZ.png) no-repeat 0 0;bottom:5px;height:26px;left:5px;position:absolute;width:35px}\\u000a.uiVideoThumbSmall i{background-image:url(https://fbstatic-a.akamaihd.net/rsrc.php/v2/yN/r/aERK2-5sOBX.png);bottom:3px;height:22px;left:3px;width:27px}\\u000a.uiVideoThumbTiny i{background-image:url(https://fbstatic-a.akamaihd.net/rsrc.php/v2/yr/r/AF1Uwjj81fI.png);bottom:3px;height:17px;width:21px;left:3px}\\u000a.uiVideoThumbLoading i{background:url(https://fbstatic-a.akamaihd.net/rsrc.php/v2/y9/r/jKEcVPZFk-2.gif) no-repeat 50% 50%;bottom:0;height:100%;left:0;width:100%}\\u000a.uiVideoThumbSmall.uiVideoThumbLoading i, .uiVideoThumbTiny.uiVideoThumbLoading i{background-image:url(https://fbstatic-a.akamaihd.net/rsrc.php/v2/yb/r/GsNJNwuI-UM.gif)}\\u000a.uiVideoThumbLoading img{opacity:.15}\\u000a.UFICommentContent .uiStreamAttachments .uiVideoThumbParentExpanded{min-height:250px}\\u000a.uiVideoThumbLarge img{background:#F2F2F2 no-repeat 50% 50%;max-height:168px;max-width:300px}\\u000a.uiVideoThumbLarge i{background:url(https://fbstatic-a.akamaihd.net/rsrc.php/v2/yG/r/Gj2ad6O09TZ.png) no-repeat 0 0;height:26px;left:50%;margin:-13px 0 0 -17px;position:absolute;top:50%;width:35px}\\u000a.uiVideoThumbHuge i{background:url(https://fbstatic-a.akamaihd.net/rsrc.php/v2/yI/r/CQWPMUMZZVm.png) no-repeat 0 0;height:62px;left:50%;margin:-31px 0 0 -46px;position:absolute;top:50%;width:92px}\\u000a.dummy{}.sp_8bdjxq{background-image:url(https://fbstatic-a.akamaihd.net/rsrc.php/v2/yN/r/02SajjNp4g6.png);background-size:auto;background-repeat:no-repeat;display:inline-block;height:14px;width:16px}\\u000a.sx_97f5aa{height:16px;background-position:-144px -101px}\\u000a.sx_bb223b{width:1px;height:42px;background-position:-191px -10px}\\u000a.sx_ab9f73{width:1px;height:4px;background-position:-347px -53px}\\u000a.sx_d9226c{height:16px;background-position:-161px -101px}\\u000a.sx_ccb547{width:14px;background-position:-267px -18px}\\u000a.sx_146f6d{width:14px;background-position:-293px -18px}\\u000a.sx_73b056{height:16px;background-position:-178px -101px}\\u000a.sx_f6562c{width:9px;height:10px;background-position:-84px -157px}\\u000a.sx_fce3b1{width:28px;height:28px;background-position:-313px -10px}\\u000a.sx_ac9de0{width:28px;height:28px;background-position:-191px -53px}\\u000a.sx_b7c134{width:8px;height:12px;background-position:-28px -106px}\\u000a.sx_670928{width:7px;background-position:-840px -402px}\\u000a.sx_5a7bc2{width:13px;height:11px;background-position:-111px -141px}\\u000a.sx_508cf0{width:14px;background-position:-48px -141px}\\u000a.sx_bbc4ad{height:9px;background-position:-300px -66px}\\u000a.sx_1637c3{height:9px;background-position:-317px -66px}\\u000a.sx_6deea9{height:9px;background-position:-334px -66px}\\u000a.sx_25931d{width:9px;height:16px;background-position:-342px -10px}\\u000a.sx_ed0d86{width:9px;height:16px;background-position:0 -124px}\\u000a.sx_5a8750{height:9px;background-position:-10px -124px}\\u000a.sx_1fdfff{width:34px;height:34px;background-position:-193px -10px}\\u000a.sx_61e883{width:11px;background-position:-77px -141px}\\u000a.sx_5ca024{width:10px;height:10px;background-position:-73px -157px}\\u000a.sx_3b1164{width:9px;height:11px;background-position:-342px -27px}\\u000a.sx_210f94{width:11px;height:11px;background-position:-13px -157px}\\u000a.sx_8c1be3{width:11px;height:11px;background-position:-25px -157px}\\u000a.sx_21a6b0{height:16px;background-position:-195px -101px}\\u000a.sx_e83866{width:13px;background-position:-63px -141px}\\u000a.sx_fd9f40{width:12px;height:10px;background-position:-139px -141px}\\u000a.sx_ba9025{background-position:-315px -82px}\\u000a.sx_982ea3{width:12px;height:12px;background-position:-315px -53px}\\u000a.selected .sx_982ea3{background-position:-302px -53px}\\u000a.sx_9a8b71{width:12px;height:12px;background-position:-261px -66px}\\u000a.selected .sx_9a8b71{background-position:-248px -66px}\\u000a.sx_a7bc7a{width:12px;height:12px;background-position:-287px -66px}\\u000a.selected .sx_a7bc7a{background-position:-274px -66px}\\u000a.sx_4da41b{width:11px;background-position:-202px -82px}\\u000a.selected .sx_4da41b{background-position:-191px -82px}\\u000a.sx_80a369{width:9px;background-position:-267px -82px}\\u000a.selected .sx_80a369{background-position:-258px -82px}\\u000a.sx_dcf2c0{width:5px;background-position:-94px -141px}\\u000a.selected .sx_dcf2c0{background-position:-89px -141px}\\u000a.sx_c0729f{width:8px;background-position:-340px -82px}\\u000a.selected .sx_c0729f{background-position:-332px -82px}\\u000a.sx_b27317{width:5px;background-position:-105px -141px}\\u000a.selected .sx_b27317{background-position:-100px -141px}\\u000a.sx_bc5c27{width:9px;background-position:-286px -82px}\\u000a.selected .sx_bc5c27{background-position:-277px -82px}\\u000a.sx_3dc85c{width:11px;background-position:-225px -82px}\\u000a.selected .sx_3dc85c{background-position:-214px -82px}\\u000a.sx_a37737{width:10px;background-position:-247px -82px}\\u000a.selected .sx_a37737{background-position:-237px -82px}\\u000a.sx_9ba609{width:9px;height:5px;background-position:-213px -45px}\\u000a.sx_f8a9f5{width:5px;height:3px;background-position:-223px -45px}\\u000a.sx_aeb957{height:16px;background-position:-212px -101px}\\u000a.sx_bb090b{width:13px;height:12px;background-position:-261px -53px}\\u000a.selected .sx_bb090b{background-position:-248px -53px}\\u000a.sx_4df59e{width:13px;height:12px;background-position:-288px -53px}\\u000a.selected .sx_4df59e{background-position:-275px -53px}\\u000a.sx_7b7618{width:9px;background-position:-305px -82px}\\u000a.selected .sx_7b7618{background-position:-296px -82px}\\u000a.sx_87fa86{width:13px;height:10px;background-position:-125px -141px}\\u000a.sx_0a3e18{width:12px;height:11px;background-position:0 -157px}\\u000a.sx_aa15e4{height:16px;background-position:-229px -101px}\\u000a.sx_cd3b37{height:16px;background-position:-246px -101px}\\u000a.sx_e3af1b{width:11px;height:11px;background-position:-37px -157px}\\u000a.sx_9f3c54{height:16px;background-position:-263px -101px}\\u000a.sx_a5061a{width:11px;height:9px;background-position:-152px -141px}\\u000a.sx_ccacc0{width:19px;height:5px;background-position:-193px -45px}\\u000a.sx_47b175{height:16px;background-position:-280px -101px}\\u000a.sx_5a95ce{height:16px;background-position:-297px -101px}\\u000a.sx_a7e783{width:32px;height:32px;background-position:-228px -10px}\\u000a.sx_c16584{width:7px;height:7px;background-position:-55px -124px}\\u000a.sx_d9f6a7{width:7px;height:11px;background-position:-49px -157px}\\u000a.sx_73cefc{width:8px;height:1px;background-position:-206px -5px}\\u000a.sx_20357b{width:8px;height:1px;background-position:-215px -5px}\\u000a.sx_4677fe{width:9px;height:9px;background-position:-164px -141px}\\u000a.sx_5872d2{width:7px;height:11px;background-position:-57px -157px}\\u000a.sx_4c3392{width:205px;height:4px;background-position:0 -5px}\\u000a.sx_771511{width:7px;height:7px;background-position:-63px -124px}\\u000a.sx_c05eb4{width:7px;height:11px;background-position:-65px -157px}\\u000a.sx_b69ecc{width:20px;height:20px;background-position:-42px -101px}\\u000a.sx_f6ca90{width:20px;height:20px;background-position:-63px -101px}\\u000a.sx_93661a{width:20px;height:20px;background-position:-84px -101px}\\u000a.sx_050148{height:16px;background-position:-126px -102px}\\u000a.sx_c8b65e{width:13px;height:13px;background-position:-1px -142px}\\u000a.sx_e936b2{width:13px;height:13px;background-position:-17px -142px}\\u000a.sx_c18c43{width:13px;height:13px;background-position:-33px -142px}\\u000a.sx_28b89b{width:20px;height:20px;background-position:-1px -102px}\\u000a.sx_3df684{width:17px;height:17px;background-position:-106px -102px}\\u000a.sx_4daa2b{width:25px;height:25px;background-position:-221px -54px}\\u000a.sx_bbee56{width:14px;background-position:-315px -102px}\\u000a.sx_553b0a{width:14px;background-position:-332px -102px}\\u000a.sx_f11055{width:851px;height:4px;background-position:0 0}\\u000a.sx_f97997{width:9px;height:8px;background-position:-337px -53px}\\u000a.selected .sx_f97997{background-position:-328px -53px}\\u000a.sx_753224{width:500px;height:48px;background-position:-352px -5px}\\u000a.sx_f485be{width:500px;height:48px;background-position:-352px -54px}\\u000a.sx_4f1fe3{width:500px;height:48px;background-position:-352px -103px}\\u000a.sx_65737f{width:500px;height:48px;background-position:-352px -152px}\\u000a.sx_f04560{width:500px;height:48px;background-position:-352px -201px}\\u000a.sx_97b60c{width:500px;height:48px;background-position:-352px -250px}\\u000a.sx_6163ce{width:500px;height:48px;background-position:-352px -299px}\\u000a.sx_56dec9{width:500px;height:48px;background-position:-352px -348px}\\u000a.sx_4e46a2{width:5px;height:7px;background-position:-49px -124px}\\u000a.selected .sx_4e46a2{background-position:-44px -124px}\\u000a.sx_c1032d{width:5px;height:3px;background-position:-229px -45px}\\u000a.sx_f6b4e2{height:8px;background-position:-27px -124px}\\u000a.sx_6fd719{width:9px;height:12px;background-position:-11px -169px}\\u000a.sx_aeb300{width:10px;height:12px;background-position:0 -169px}\\u000a.sx_b635b1{width:7px;height:12px;background-position:-21px -169px}\\u000a.sx_4c0dd4{width:190px;height:90px;background-position:0 -10px}.sp_81pvib{background-image:url(https://fbstatic-a.akamaihd.net/rsrc.php/v2/yW/r/UxEeFRO7Qa2.png);background-size:auto;background-repeat:no-repeat;display:inline-block;height:16px;width:16px}\\u000a.sx_ab8f77{width:14px;height:14px;background-position:-140px -442px}\\u000a.sx_3bbe73{width:15px;height:64px;background-position:-268px -59px}\\u000a.sx_e603cc{height:10px;background-position:-292px -233px}\\u000a.sx_d89159{width:26px;height:24px;background-position:-192px -480px}\\u000a.sx_1c58ad{width:26px;height:24px;background-position:-58px -542px}\\u000a.sx_f9fb70{width:10px;height:10px;background-position:-301px -904px}\\u000a.sx_357917{width:10px;height:10px;background-position:-301px -973px}\\u000a.sx_ef5a9e{width:11px;height:14px;background-position:-301px -44px}\\u000a.sx_665bc2{width:22px;height:25px;background-position:-48px -571px}\\u000a.sx_5eb81b{width:22px;height:25px;background-position:-71px -571px}\\u000a.sx_3aebfa{width:249px;height:2px;background-position:0 -250px}\\u000a.sx_78ef50{width:255px;height:2px;background-position:0 -247px}\\u000a.sx_fbde3e{width:36px;height:36px;background-position:-28px -434px}\\u000a.sx_71adb6{width:8px;height:13px;background-position:-187px -616px}\\u000a.sx_96df6c{width:8px;height:13px;background-position:-196px -616px}\\u000a.sx_9f78c6{width:12px;height:12px;background-position:-300px -308px}\\u000a.sx_fb934d{width:21px;height:25px;background-position:-163px -571px}\\u000a.sx_5c27eb{width:21px;height:25px;background-position:-185px -571px}\\u000a.sx_7ee088{width:12px;height:12px;background-position:-300px -409px}\\u000a.sx_8c8fa5{width:10px;height:9px;background-position:-301px -695px}\\u000a.sx_da353f{width:14px;height:13px;background-position:-122px -411px}\\u000a.sx_ba35c5{width:14px;height:13px;background-position:-156px -411px}\\u000a.sx_2ee1c8{width:10px;height:12px;background-position:-142px -490px}\\u000a.sx_c9d7cb{width:10px;height:12px;background-position:-172px -490px}\\u000a.sx_4e77cc{width:14px;height:10px;background-position:-190px -411px}\\u000a.sx_8fe53d{width:14px;height:10px;background-position:-110px -444px}\\u000a.sx_badb86{width:7px;height:12px;background-position:-304px -602px}\\u000a.sx_7fe84d{width:8px;height:12px;background-position:0 -167px}\\u000a.sx_91bd31{width:12px;height:12px;background-position:-300px -509px}\\u000a.sx_baf2e1{width:8px;height:12px;background-position:0 -67px}\\u000a.sx_107627{width:17px;background-position:0 -617px}\\u000a.sx_17511a{width:7px;height:14px;background-position:0 -195px}\\u000a.sx_100e77{width:7px;height:14px;background-position:0 -225px}\\u000a.sx_cdf0d8{width:11px;height:10px;background-position:-181px -308px}\\u000a.sx_27b36c{width:22px;height:25px;background-position:-94px -571px}\\u000a.sx_af20a8{width:22px;height:25px;background-position:-117px -571px}\\u000a.sx_891f9b{width:22px;height:25px;background-position:-140px -571px}\\u000a.sx_bd103d{width:9px;height:6px;background-position:-284px -116px}\\u000a.sx_4a9665{width:10px;height:10px;background-position:-174px -601px}\\u000a.sx_87b547{width:34px;height:34px;background-position:-65px -434px}\\u000a.sx_5bb814{width:100px;height:100px;background-position:0 -300px}\\u000a.sx_9ac840{width:11px;height:4px;background-position:-300px -9px}\\u000a.sx_82583d{width:10px;height:11px;background-position:-105px -906px}\\u000a.sx_a9fb79{width:10px;height:11px;background-position:-121px -906px}\\u000a.sx_fe39bc{width:11px;height:4px;background-position:-300px -31px}\\u000a.sx_411ea4{background-position:-295px -216px}\\u000a.sx_14cbd8{background-position:-26px -634px}\\u000a.sx_974c8a{background-position:-43px -634px}\\u000a.sx_3c5e87{background-position:-60px -634px}\\u000a.sx_64d4fe{background-position:-77px -634px}\\u000a.sx_681364{background-position:-94px -634px}\\u000a.sx_d75c4a{background-position:-111px -634px}\\u000a.sx_71238a{background-position:-128px -634px}\\u000a.sx_318e61{background-position:-145px -634px}\\u000a.sx_3a3b76{background-position:-162px -634px}\\u000a.sx_7beb70{background-position:-179px -634px}\\u000a.sx_3cd541{background-position:-196px -634px}\\u000a.sx_472320{background-position:0 -652px}\\u000a.sx_e0422e{background-position:-17px -652px}\\u000a.sx_5a856d{background-position:-34px -652px}\\u000a.sx_d1c2c0{background-position:-51px -652px}\\u000a.sx_b2c562{background-position:-68px -652px}\\u000a.sx_dfb452{background-position:-85px -652px}\\u000a.sx_4c2d5b{background-position:-102px -652px}\\u000a.sx_f6031f{background-position:-119px -652px}\\u000a.sx_29b0e3{background-position:-136px -652px}\\u000a.sx_b4844a{background-position:-153px -652px}\\u000a.sx_c4c764{background-position:-170px -652px}\\u000a.sx_901f35{background-position:-187px -652px}\\u000a.sx_d8b599{background-position:-204px -652px}\\u000a.sx_5c9601{background-position:0 -669px}\\u000a.sx_62c297{background-position:-17px -669px}\\u000a.sx_419c72{background-position:-34px -669px}\\u000a.sx_3ccf05{background-position:-51px -669px}\\u000a.sx_3ee347{background-position:-68px -669px}\\u000a.sx_eee404{background-position:-85px -669px}\\u000a.sx_f22bd8{background-position:-102px -669px}\\u000a.sx_a8082c{background-position:-119px -669px}\\u000a.sx_7f9c48{background-position:-136px -669px}\\u000a.sx_5547a7{background-position:-153px -669px}\\u000a.sx_11615d{background-position:-170px -669px}\\u000a.sx_e72a44{background-position:-187px -669px}\\u000a.sx_ceec89{background-position:-204px -669px}\\u000a.sx_89e401{background-position:0 -694px}\\u000a.sx_40c020{background-position:-17px -694px}\\u000a.sx_380a47{background-position:-34px -694px}\\u000a.sx_6cf35b{background-position:-51px -694px}\\u000a.sx_2cb218{background-position:-68px -694px}\\u000a.sx_5ebc08{background-position:-85px -694px}\\u000a.sx_5f0cd5{background-position:-102px -694px}\\u000a.sx_6890ca{background-position:-119px -694px}\\u000a.sx_15eae2{background-position:-136px -694px}\\u000a.sx_bc272f{background-position:-153px -694px}\\u000a.sx_abf0bc{background-position:-170px -694px}\\u000a.sx_463dc3{background-position:-187px -694px}\\u000a.sx_470254{background-position:-204px -694px}\\u000a.sx_4be621{background-position:0 -711px}\\u000a.sx_81cc0f{background-position:-17px -711px}\\u000a.sx_6c0889{background-position:-34px -711px}\\u000a.sx_ab667b{background-position:-51px -711px}\\u000a.sx_54da58{background-position:-68px -711px}\\u000a.sx_28d1c7{background-position:-85px -711px}\\u000a.sx_2e216a{background-position:-102px -711px}\\u000a.sx_ee2ec7{background-position:-119px -711px}\\u000a.sx_d0798e{background-position:-136px -711px}\\u000a.sx_55866d{background-position:-153px -711px}\\u000a.sx_b19fd3{background-position:-170px -711px}\\u000a.sx_0a4e24{background-position:-187px -711px}\\u000a.sx_ac8616{background-position:-204px -711px}\\u000a.sx_3ecf0e{background-position:0 -728px}\\u000a.sx_7c6363{background-position:-17px -728px}\\u000a.sx_55b9e2{background-position:-34px -728px}\\u000a.sx_f07a26{background-position:-51px -728px}\\u000a.sx_2252b1{background-position:-68px -728px}\\u000a.sx_15b263{background-position:-85px -728px}\\u000a.sx_c5ca35{background-position:-102px -728px}\\u000a.sx_d65723{background-position:-119px -728px}\\u000a.sx_b87843{background-position:-136px -728px}\\u000a.sx_429161{background-position:-153px -728px}\\u000a.sx_0beda1{background-position:-170px -728px}\\u000a.sx_2501c9{background-position:-187px -728px}\\u000a.sx_68092a{background-position:-204px -728px}\\u000a.sx_aba8fa{background-position:0 -745px}\\u000a.sx_67ba29{background-position:-17px -745px}\\u000a.sx_86e9ed{background-position:-34px -745px}\\u000a.sx_c363c7{background-position:-51px -745px}\\u000a.sx_35a226{background-position:-68px -745px}\\u000a.sx_f4b999{background-position:-85px -745px}\\u000a.sx_e1b134{background-position:-102px -745px}\\u000a.sx_5f8fa3{background-position:-119px -745px}\\u000a.sx_8ff108{background-position:-136px -745px}\\u000a.sx_d83bb2{background-position:-153px -745px}\\u000a.sx_5d7555{background-position:-170px -745px}\\u000a.sx_b27e42{background-position:-187px -745px}\\u000a.sx_154174{background-position:-204px -745px}\\u000a.sx_8d3853{background-position:0 -762px}\\u000a.sx_b64558{background-position:-17px -762px}\\u000a.sx_dcb5d2{background-position:-34px -762px}\\u000a.sx_1535e1{background-position:-51px -762px}\\u000a.sx_cb4ecf{background-position:-68px -762px}\\u000a.sx_a8cceb{background-position:-85px -762px}\\u000a.sx_a23d8c{background-position:-102px -762px}\\u000a.sx_18af43{background-position:-119px -762px}\\u000a.sx_5a3b2a{background-position:-136px -762px}\\u000a.sx_b3a9c8{background-position:-153px -762px}\\u000a.sx_ffadca{background-position:-170px -762px}\\u000a.sx_816d41{background-position:-187px -762px}\\u000a.sx_e49d75{background-position:-204px -762px}\\u000a.sx_0f7ff0{background-position:0 -784px}\\u000a.sx_87d95a{background-position:-17px -784px}\\u000a.sx_c11350{background-position:-34px -784px}\\u000a.sx_16d91b{background-position:-51px -784px}\\u000a.sx_8b648c{background-position:-68px -784px}\\u000a.sx_91c926{background-position:-85px -784px}\\u000a.sx_92e40b{background-position:-102px -784px}\\u000a.sx_4175ea{background-position:-119px -784px}\\u000a.sx_8a843a{background-position:-136px -784px}\\u000a.sx_547ef1{background-position:-153px -784px}\\u000a.sx_3f6844{background-position:-170px -784px}\\u000a.sx_63c869{background-position:-187px -784px}\\u000a.sx_ac67c4{background-position:-204px -784px}\\u000a.sx_a03701{background-position:-221px -784px}\\u000a.sx_a203b3{background-position:-238px -784px}\\u000a.sx_3c85ff{background-position:-255px -784px}\\u000a.sx_1be8cb{background-position:-272px -784px}\\u000a.sx_020d09{background-position:-289px -784px}\\u000a.sx_45f8a2{background-position:0 -801px}\\u000a.sx_aee157{background-position:-17px -801px}\\u000a.sx_04dea6{background-position:-34px -801px}\\u000a.sx_48c329{background-position:-51px -801px}\\u000a.sx_07f639{background-position:-68px -801px}\\u000a.sx_7c6693{background-position:-85px -801px}\\u000a.sx_82f16a{background-position:-102px -801px}\\u000a.sx_b9a855{background-position:-119px -801px}\\u000a.sx_cbf391{background-position:-136px -801px}\\u000a.sx_d03fec{background-position:-153px -801px}\\u000a.sx_88348d{background-position:-170px -801px}\\u000a.sx_01e8a1{background-position:-187px -801px}\\u000a.sx_828609{background-position:-204px -801px}\\u000a.sx_e0901d{background-position:-221px -801px}\\u000a.sx_42fc52{background-position:-238px -801px}\\u000a.sx_c6c2df{background-position:-255px -801px}\\u000a.sx_1f0610{background-position:-272px -801px}\\u000a.sx_97beff{background-position:-289px -801px}\\u000a.sx_162c66{background-position:0 -818px}\\u000a.sx_f3b4c5{background-position:-17px -818px}\\u000a.sx_50a5bf{background-position:-34px -818px}\\u000a.sx_c2a8c6{background-position:-51px -818px}\\u000a.sx_7f626e{background-position:-68px -818px}\\u000a.sx_6e7701{background-position:-85px -818px}\\u000a.sx_68bf59{background-position:-102px -818px}\\u000a.sx_d659a6{background-position:-119px -818px}\\u000a.sx_aad0b7{background-position:-136px -818px}\\u000a.sx_9d6edd{background-position:-153px -818px}\\u000a.sx_4f25b6{background-position:-170px -818px}\\u000a.sx_dd91e1{background-position:-187px -818px}\\u000a.sx_8c1876{background-position:-204px -818px}\\u000a.sx_e0b2a5{background-position:-221px -818px}\\u000a.sx_a479d5{background-position:-238px -818px}\\u000a.sx_cf15b7{background-position:-255px -818px}\\u000a.sx_dd481f{background-position:-272px -818px}\\u000a.sx_652955{background-position:-289px -818px}\\u000a.sx_245e6f{background-position:0 -835px}\\u000a.sx_4cf63b{background-position:-17px -835px}\\u000a.sx_325414{background-position:-34px -835px}\\u000a.sx_abd39e{background-position:-51px -835px}\\u000a.sx_ab16a8{background-position:-68px -835px}\\u000a.sx_b2b5ea{background-position:-85px -835px}\\u000a.sx_edcba8{background-position:-102px -835px}\\u000a.sx_e36bbf{background-position:-119px -835px}\\u000a.sx_0d8a6e{background-position:-136px -835px}\\u000a.sx_4aae12{background-position:-153px -835px}\\u000a.sx_fee198{background-position:-170px -835px}\\u000a.sx_f90e41{background-position:-187px -835px}\\u000a.sx_bd57db{background-position:-204px -835px}\\u000a.sx_dea2ef{background-position:-221px -835px}\\u000a.sx_8b0a16{background-position:-238px -835px}\\u000a.sx_faa44d{background-position:-255px -835px}\\u000a.sx_9a410a{background-position:-272px -835px}\\u000a.sx_2563b2{background-position:-289px -835px}\\u000a.sx_30cf11{background-position:0 -852px}\\u000a.sx_edd2a3{background-position:-17px -852px}\\u000a.sx_1e8a7f{background-position:-34px -852px}\\u000a.sx_80ffbe{background-position:-51px -852px}\\u000a.sx_ec0744{background-position:-68px -852px}\\u000a.sx_ff080e{background-position:-85px -852px}\\u000a.sx_101735{background-position:-102px -852px}\\u000a.sx_9a4597{background-position:-119px -852px}\\u000a.sx_39e003{background-position:-136px -852px}\\u000a.sx_4a1258{background-position:-153px -852px}\\u000a.sx_eeff8d{background-position:-170px -852px}\\u000a.sx_dcc503{background-position:-187px -852px}\\u000a.sx_4bb37c{background-position:-204px -852px}\\u000a.sx_f86429{background-position:-221px -852px}\\u000a.sx_de4304{background-position:-238px -852px}\\u000a.sx_0d2583{background-position:-255px -852px}\\u000a.sx_fb22b7{background-position:-272px -852px}\\u000a.sx_b14f93{background-position:-289px -852px}\\u000a.sx_93c653{background-position:0 -869px}\\u000a.sx_34e847{background-position:-17px -869px}\\u000a.sx_6e298b{background-position:-34px -869px}\\u000a.sx_764a30{background-position:-51px -869px}\\u000a.sx_577be0{background-position:-68px -869px}\\u000a.sx_78b32c{background-position:-85px -869px}\\u000a.sx_579d96{background-position:-102px -869px}\\u000a.sx_2f99e0{background-position:-119px -869px}\\u000a.sx_b888dc{background-position:-136px -869px}\\u000a.sx_d54507{background-position:-153px -869px}\\u000a.sx_6f64b8{background-position:-170px -869px}\\u000a.sx_e9e9bf{background-position:-187px -869px}\\u000a.sx_290d1f{background-position:-204px -869px}\\u000a.sx_c4ebaf{background-position:-221px -869px}\\u000a.sx_34871d{background-position:-238px -869px}\\u000a.sx_adf34b{background-position:-255px -869px}\\u000a.sx_f5a746{background-position:-272px -869px}\\u000a.sx_b4c26d{background-position:-289px -869px}\\u000a.sx_bdf2bf{background-position:0 -886px}\\u000a.sx_ed03a7{background-position:-17px -886px}\\u000a.sx_003f2f{background-position:-34px -886px}\\u000a.sx_c151e4{background-position:-51px -886px}\\u000a.sx_c95b52{background-position:-68px -886px}\\u000a.sx_d06470{background-position:-85px -886px}\\u000a.sx_81f8e5{background-position:-102px -886px}\\u000a.sx_27b7b2{background-position:-119px -886px}\\u000a.sx_5e0dd1{background-position:-136px -886px}\\u000a.sx_531fe3{background-position:-52px -616px}\\u000a.sx_e8c5df{background-position:-153px -886px}\\u000a.sx_4deba4{background-position:-170px -886px}\\u000a.sx_6abeb3{background-position:-187px -886px}\\u000a.sx_6dcf39{background-position:-204px -886px}\\u000a.sx_ca62ad{width:14px;background-position:-150px -903px}\\u000a.sx_bd08fb{background-position:-221px -886px}\\u000a.sx_92a227{background-position:-238px -886px}\\u000a.sx_ce170f{background-position:-255px -886px}\\u000a.sx_55321b{background-position:-272px -886px}\\u000a.sx_de2869{background-position:-289px -886px}\\u000a.sx_b35297{background-position:0 -903px}\\u000a.sx_13ad0a{background-position:-17px -903px}\\u000a.sx_a467c3{background-position:-34px -903px}\\u000a.sx_87c3ae{width:14px;height:14px;background-position:-282px -170px}\\u000a.selected .sx_87c3ae{background-position:-268px -170px}\\u000a.sx_b3f77f{width:12px;height:14px;background-position:-218px -253px}\\u000a.selected .sx_b3f77f{background-position:-206px -253px}\\u000a.sx_15668a{width:9px;height:14px;background-position:-72px -601px}\\u000a.selected .sx_15668a{background-position:-63px -601px}\\u000a.sx_854f23{width:10px;height:14px;background-position:-10px -601px}\\u000a.selected .sx_854f23{background-position:0 -601px}\\u000a.sx_5e5b94{width:12px;height:14px;background-position:-243px -253px}\\u000a.selected .sx_5e5b94{background-position:-231px -253px}\\u000a.sx_b46582{width:9px;height:14px;background-position:-91px -601px}\\u000a.selected .sx_b46582{background-position:-82px -601px}\\u000a.sx_acc36c{width:10px;height:14px;background-position:-31px -601px}\\u000a.selected .sx_acc36c{background-position:-21px -601px}\\u000a.sx_15ce63{width:10px;height:14px;background-position:-52px -601px}\\u000a.selected .sx_15ce63{background-position:-42px -601px}\\u000a.sx_795693{width:11px;height:14px;background-position:-96px -542px}\\u000a.selected .sx_795693{background-position:-85px -542px}\\u000a.sx_335e5d{width:8px;height:14px;background-position:-96px -616px}\\u000a.selected .sx_335e5d{background-position:-88px -616px}\\u000a.sx_d261fe{width:12px;height:14px;background-position:-268px -253px}\\u000a.selected .sx_d261fe{background-position:-256px -253px}\\u000a.sx_b408e6{width:9px;height:13px;background-position:-129px -601px}\\u000a.selected .sx_b408e6{background-position:-120px -601px}\\u000a.sx_3cc263{width:12px;height:14px;background-position:-293px -253px}\\u000a.selected .sx_3cc263{background-position:-281px -253px}\\u000a.sx_de49ca{width:9px;height:14px;background-position:-110px -601px}\\u000a.selected .sx_de49ca{background-position:-101px -601px}\\u000a.sx_72bf8b{width:9px;height:12px;background-position:-209px -542px}\\u000a.selected .sx_72bf8b{background-position:-200px -542px}\\u000a.sx_33afd8{width:12px;height:10px;background-position:-279px -233px}\\u000a.selected .sx_33afd8{background-position:-267px -233px}\\u000a.sx_a48581{width:8px;height:14px;background-position:-113px -616px}\\u000a.selected .sx_a48581{background-position:-105px -616px}\\u000a.sx_505286{width:11px;height:12px;background-position:-165px -542px}\\u000a.selected .sx_505286{background-position:-154px -542px}\\u000a.sx_d6ec75{width:11px;height:14px;background-position:-119px -542px}\\u000a.selected .sx_d6ec75{background-position:-108px -542px}\\u000a.sx_994ae1{width:11px;height:14px;background-position:-142px -542px}\\u000a.selected .sx_994ae1{background-position:-131px -542px}\\u000a.sx_7a36db{width:11px;height:12px;background-position:-204px -903px}\\u000a.sx_f4daae{width:8px;height:14px;background-position:-130px -616px}\\u000a.selected .sx_f4daae{background-position:-122px -616px}\\u000a.sx_36f179{width:13px;height:10px;background-position:-297px -105px}\\u000a.selected .sx_36f179{background-position:-284px -105px}\\u000a.sx_303293{height:10px;background-position:-157px -601px}\\u000a.sx_40d4c2{background-position:-51px -903px}\\u000a.sx_cef735{background-position:-68px -903px}\\u000a.sx_95b562{width:17px;height:12px;background-position:-139px -601px}\\u000a.sx_ec0d22{background-position:-85px -903px}\\u000a.sx_6ffd7d{width:22px;height:12px;background-position:-177px -542px}\\u000a.sx_2256c8{width:12px;height:11px;background-position:-228px -903px}\\u000a.sx_d15f4b{width:28px;height:28px;background-position:-186px -434px}\\u000a.sx_114f94{width:28px;height:28px;background-position:0 -513px}\\u000a.sx_052d2e{width:28px;height:28px;background-position:-29px -513px}\\u000a.sx_378b70{width:28px;height:28px;background-position:-58px -513px}\\u000a.sx_db929a{width:28px;height:28px;background-position:-87px -513px}\\u000a.sx_bc073a{width:28px;height:28px;background-position:-116px -513px}\\u000a.sx_b48c64{width:205px;height:4px;background-position:0 -253px}\\u000a.sx_7ff588{width:205px;height:4px;background-position:0 -258px}\\u000a.sx_186cf6{width:6px;height:9px;background-position:-304px -268px}\\u000a.sx_3b028c{width:6px;height:9px;background-position:-304px -278px}\\u000a.sx_332928{width:8px;height:7px;background-position:-44px -471px}\\u000a.sx_f62101{width:8px;height:7px;background-position:-53px -471px}\\u000a.sx_0c7fa9{width:8px;height:7px;background-position:-62px -471px}\\u000a.sx_4295a4{width:6px;height:9px;background-position:-304px -288px}\\u000a.sx_16c306{width:13px;height:13px;background-position:-5px -577px}\\u000a.sx_07018f{width:13px;height:13px;background-position:-29px -577px}\\u000a.sx_ad372a{width:8px;height:10px;background-position:-303px -922px}\\u000a.sx_f3bc58{width:28px;height:28px;background-position:-145px -513px}\\u000a.sx_d9cb72{width:28px;height:28px;background-position:-174px -513px}\\u000a.sx_439aba{width:8px;height:10px;background-position:-303px -935px}\\u000a.sx_23c0be{width:32px;height:32px;background-position:0 -480px}\\u000a.sx_78bd9d{width:32px;height:32px;background-position:-33px -480px}\\u000a.sx_27ba0b{width:13px;height:14px;background-position:-198px -309px}\\u000a.sx_13dcf3{width:13px;height:14px;background-position:-198px -341px}\\u000a.sx_94de6f{width:13px;height:14px;background-position:-198px -373px}\\u000a.sx_e5e603{width:12px;height:17px;background-position:0 -634px}\\u000a.sx_a16778{width:12px;height:17px;background-position:-13px -634px}\\u000a.sx_1fc8ae{height:17px;background-position:-18px -616px}\\u000a.sx_434a51{height:17px;background-position:-35px -616px}\\u000a.sx_81d425{width:24px;height:32px;background-position:-14px -401px}\\u000a.sx_21f806{width:24px;height:32px;background-position:-70px -401px}\\u000a.sx_dd8758{width:1px;height:28px;background-position:-310px -124px}\\u000a.sx_10266c{width:17px;height:14px;background-position:-70px -616px}\\u000a.sx_aa9029{width:5px;height:28px;background-position:-304px -124px}\\u000a.sx_d46f58{width:5px;height:28px;background-position:-295px -187px}\\u000a.sx_0ca58a{width:28px;height:28px;background-position:0 -542px}\\u000a.sx_7b50da{width:28px;height:28px;background-position:-29px -542px}\\u000a.sx_04e0c3{width:7px;height:8px;background-position:-28px -471px}\\u000a.sx_521d66{width:7px;height:8px;background-position:-36px -471px}\\u000a.sx_1686e5{width:151px;height:30px;background-position:0 -268px}\\u000a.sx_4004bd{width:12px;height:13px;background-position:-148px -616px}\\u000a.sx_6b5078{width:12px;height:13px;background-position:-161px -616px}\\u000a.sx_3c0054{width:12px;height:13px;background-position:-174px -616px}\\u000a.sx_760fd1{width:1px;height:21px;background-position:-301px -187px}\\u000a.sx_3e25a7{width:12px;height:21px;background-position:-203px -513px}\\u000a.sx_c91382{width:12px;height:21px;background-position:-207px -571px}\\u000a.sx_b5120e{width:151px;height:30px;background-position:-152px -268px}\\u000a.sx_65a164{width:205px;height:4px;background-position:0 -263px}\\u000a.sx_f11141{width:13px;height:13px;background-position:-76px -490px}\\u000a.sx_de5aa1{width:13px;height:13px;background-position:-109px -490px}\\u000a.sx_4529b3{width:8px;height:10px;background-position:-303px -946px}\\u000a.sx_b825ff{width:8px;height:10px;background-position:-303px -959px}\\u000a.sx_0bfad4{width:13px;height:14px;background-position:-297px -170px}\\u000a.sx_60713f{width:8px;height:10px;background-position:-252px -903px}\\u000a.sx_474596{width:8px;height:10px;background-position:-261px -903px}\\u000a.sx_2e6248{width:8px;height:14px;background-position:-303px -187px}\\u000a.sx_e620b7{width:8px;height:14px;background-position:-139px -616px}\\u000a.sx_339e55{width:15px;background-position:-134px -903px}\\u000a.sx_34096d{width:11px;height:12px;background-position:-216px -903px}\\u000a.sx_c721b7{width:3px;height:32px;background-position:-296px -124px}\\u000a.sx_b5b8d0{width:3px;height:32px;background-position:-300px -124px}\\u000a.sx_03e0e2{width:14px;height:14px;background-position:-166px -442px}\\u000a.sx_283ae6{width:27px;height:45px;background-position:-284px -59px}\\u000a.sx_3b682c{width:27px;height:45px;background-position:-268px -124px}\\u000a.sx_f7b35a{width:27px;height:45px;background-position:-267px -187px}\\u000a.sx_ae978c{width:27px;height:45px;background-position:0 -434px}\\u000a.sx_6a1ce4{width:12px;height:12px;background-position:-296px -157px}\\u000a.sx_0e2f37{width:12px;height:12px;background-position:-205px -616px}\\u000a.sx_b59231{width:12px;height:12px;background-position:-165px -903px}\\u000a.sx_9114b0{width:12px;height:12px;background-position:-178px -903px}\\u000a.sx_3bd14e{width:12px;height:12px;background-position:-191px -903px}\\u000a.sx_3f1381{width:10px;height:10px;background-position:-185px -601px}\\u000a.sx_781e1a{width:10px;height:10px;background-position:-196px -601px}\\u000a.sx_8f0877{width:10px;height:10px;background-position:-207px -601px}\\u000a.sx_d2dde2{width:10px;height:10px;background-position:-213px -634px}\\u000a.sx_020278{width:10px;height:10px;background-position:-241px -903px}.sp_91xov8{background-image:url(https://fbstatic-a.akamaihd.net/rsrc.php/v2/yH/r/qhdBrAqyelm.png);background-size:auto;background-repeat:no-repeat;display:inline-block;height:32px;width:32px}\\u000a.sx_d121bb{width:11px;height:11px;background-position:0 -268px}\\u000a.sx_97b6ce{width:16px;height:17px;background-position:0 -211px}\\u000a.sx_62e6f4{width:16px;height:16px;background-position:0 -229px}\\u000a.sx_1c9606{width:12px;height:11px;background-position:-19px -198px}\\u000a.sx_8aaef1{background-position:0 0}\\u000a.sx_be1a5d{width:9px;height:13px;background-position:-17px -211px}\\u000a.sx_af2c14{width:9px;height:12px;background-position:-9px -198px}\\u000a.selected .sx_af2c14{background-position:0 -198px}\\u000a.sx_ee4295{width:8px;height:12px;background-position:-8px -246px}\\u000a.selected .sx_ee4295{background-position:0 -246px}\\u000a.sx_fd9ca8{background-position:0 -33px}\\u000a.sx_4b97cb{background-position:0 -66px}\\u000a.sx_81c4d6{background-position:0 -99px}\\u000a.sx_acbdd9{background-position:0 -132px}\\u000a.sx_78cdef{background-position:0 -165px}\\u000a.sx_883fbe{width:9px;height:13px;background-position:-17px -225px}\\u000a.sx_d73716{width:9px;height:13px;background-position:-17px -239px}\\u000a.sx_498776{width:9px;height:13px;background-position:-17px -253px}\\u000a.sx_f7c342{width:8px;height:8px;background-position:-8px -259px}\\u000a.selected .sx_f7c342{background-position:0 -259px}.sp_81pvib{background-image:url(https://fbstatic-a.akamaihd.net/rsrc.php/v2/yW/r/UxEeFRO7Qa2.png);background-size:auto;background-repeat:no-repeat;display:inline-block;height:16px;width:16px}\\u000a.sx_ab8f77{width:14px;height:14px;background-position:-140px -442px}\\u000a.sx_3bbe73{width:15px;height:64px;background-position:-268px -59px}\\u000a.sx_e603cc{height:10px;background-position:-292px -233px}\\u000a.sx_d89159{width:26px;height:24px;background-position:-192px -480px}\\u000a.sx_1c58ad{width:26px;height:24px;background-position:-58px -542px}\\u000a.sx_f9fb70{width:10px;height:10px;background-position:-301px -904px}\\u000a.sx_357917{width:10px;height:10px;background-position:-301px -973px}\\u000a.sx_ef5a9e{width:11px;height:14px;background-position:-301px -44px}\\u000a.sx_665bc2{width:22px;height:25px;background-position:-48px -571px}\\u000a.sx_5eb81b{width:22px;height:25px;background-position:-71px -571px}\\u000a.sx_3aebfa{width:249px;height:2px;background-position:0 -250px}\\u000a.sx_78ef50{width:255px;height:2px;background-position:0 -247px}\\u000a.sx_fbde3e{width:36px;height:36px;background-position:-28px -434px}\\u000a.sx_71adb6{width:8px;height:13px;background-position:-187px -616px}\\u000a.sx_96df6c{width:8px;height:13px;background-position:-196px -616px}\\u000a.sx_9f78c6{width:12px;height:12px;background-position:-300px -308px}\\u000a.sx_fb934d{width:21px;height:25px;background-position:-163px -571px}\\u000a.sx_5c27eb{width:21px;height:25px;background-position:-185px -571px}\\u000a.sx_7ee088{width:12px;height:12px;background-position:-300px -409px}\\u000a.sx_8c8fa5{width:10px;height:9px;background-position:-301px -695px}\\u000a.sx_da353f{width:14px;height:13px;background-position:-122px -411px}\\u000a.sx_ba35c5{width:14px;height:13px;background-position:-156px -411px}\\u000a.sx_2ee1c8{width:10px;height:12px;background-position:-142px -490px}\\u000a.sx_c9d7cb{width:10px;height:12px;background-position:-172px -490px}\\u000a.sx_4e77cc{width:14px;height:10px;background-position:-190px -411px}\\u000a.sx_8fe53d{width:14px;height:10px;background-position:-110px -444px}\\u000a.sx_badb86{width:7px;height:12px;background-position:-304px -602px}\\u000a.sx_7fe84d{width:8px;height:12px;background-position:0 -167px}\\u000a.sx_91bd31{width:12px;height:12px;background-position:-300px -509px}\\u000a.sx_baf2e1{width:8px;height:12px;background-position:0 -67px}\\u000a.sx_107627{width:17px;background-position:0 -617px}\\u000a.sx_17511a{width:7px;height:14px;background-position:0 -195px}\\u000a.sx_100e77{width:7px;height:14px;background-position:0 -225px}\\u000a.sx_cdf0d8{width:11px;height:10px;background-position:-181px -308px}\\u000a.sx_27b36c{width:22px;height:25px;background-position:-94px -571px}\\u000a.sx_af20a8{width:22px;height:25px;background-position:-117px -571px}\\u000a.sx_891f9b{width:22px;height:25px;background-position:-140px -571px}\\u000a.sx_bd103d{width:9px;height:6px;background-position:-284px -116px}\\u000a.sx_4a9665{width:10px;height:10px;background-position:-174px -601px}\\u000a.sx_87b547{width:34px;height:34px;background-position:-65px -434px}\\u000a.sx_5bb814{width:100px;height:100px;background-position:0 -300px}\\u000a.sx_9ac840{width:11px;height:4px;background-position:-300px -9px}\\u000a.sx_82583d{width:10px;height:11px;background-position:-105px -906px}\\u000a.sx_a9fb79{width:10px;height:11px;background-position:-121px -906px}\\u000a.sx_fe39bc{width:11px;height:4px;background-position:-300px -31px}\\u000a.sx_411ea4{background-position:-295px -216px}\\u000a.sx_14cbd8{background-position:-26px -634px}\\u000a.sx_974c8a{background-position:-43px -634px}\\u000a.sx_3c5e87{background-position:-60px -634px}\\u000a.sx_64d4fe{background-position:-77px -634px}\\u000a.sx_681364{background-position:-94px -634px}\\u000a.sx_d75c4a{background-position:-111px -634px}\\u000a.sx_71238a{background-position:-128px -634px}\\u000a.sx_318e61{background-position:-145px -634px}\\u000a.sx_3a3b76{background-position:-162px -634px}\\u000a.sx_7beb70{background-position:-179px -634px}\\u000a.sx_3cd541{background-position:-196px -634px}\\u000a.sx_472320{background-position:0 -652px}\\u000a.sx_e0422e{background-position:-17px -652px}\\u000a.sx_5a856d{background-position:-34px -652px}\\u000a.sx_d1c2c0{background-position:-51px -652px}\\u000a.sx_b2c562{background-position:-68px -652px}\\u000a.sx_dfb452{background-position:-85px -652px}\\u000a.sx_4c2d5b{background-position:-102px -652px}\\u000a.sx_f6031f{background-position:-119px -652px}\\u000a.sx_29b0e3{background-position:-136px -652px}\\u000a.sx_b4844a{background-position:-153px -652px}\\u000a.sx_c4c764{background-position:-170px -652px}\\u000a.sx_901f35{background-position:-187px -652px}\\u000a.sx_d8b599{background-position:-204px -652px}\\u000a.sx_5c9601{background-position:0 -669px}\\u000a.sx_62c297{background-position:-17px -669px}\\u000a.sx_419c72{background-position:-34px -669px}\\u000a.sx_3ccf05{background-position:-51px -669px}\\u000a.sx_3ee347{background-position:-68px -669px}\\u000a.sx_eee404{background-position:-85px -669px}\\u000a.sx_f22bd8{background-position:-102px -669px}\\u000a.sx_a8082c{background-position:-119px -669px}\\u000a.sx_7f9c48{background-position:-136px -669px}\\u000a.sx_5547a7{background-position:-153px -669px}\\u000a.sx_11615d{background-position:-170px -669px}\\u000a.sx_e72a44{background-position:-187px -669px}\\u000a.sx_ceec89{background-position:-204px -669px}\\u000a.sx_89e401{background-position:0 -694px}\\u000a.sx_40c020{background-position:-17px -694px}\\u000a.sx_380a47{background-position:-34px -694px}\\u000a.sx_6cf35b{background-position:-51px -694px}\\u000a.sx_2cb218{background-position:-68px -694px}\\u000a.sx_5ebc08{background-position:-85px -694px}\\u000a.sx_5f0cd5{background-position:-102px -694px}\\u000a.sx_6890ca{background-position:-119px -694px}\\u000a.sx_15eae2{background-position:-136px -694px}\\u000a.sx_bc272f{background-position:-153px -694px}\\u000a.sx_abf0bc{background-position:-170px -694px}\\u000a.sx_463dc3{background-position:-187px -694px}\\u000a.sx_470254{background-position:-204px -694px}\\u000a.sx_4be621{background-position:0 -711px}\\u000a.sx_81cc0f{background-position:-17px -711px}\\u000a.sx_6c0889{background-position:-34px -711px}\\u000a.sx_ab667b{background-position:-51px -711px}\\u000a.sx_54da58{background-position:-68px -711px}\\u000a.sx_28d1c7{background-position:-85px -711px}\\u000a.sx_2e216a{background-position:-102px -711px}\\u000a.sx_ee2ec7{background-position:-119px -711px}\\u000a.sx_d0798e{background-position:-136px -711px}\\u000a.sx_55866d{background-position:-153px -711px}\\u000a.sx_b19fd3{background-position:-170px -711px}\\u000a.sx_0a4e24{background-position:-187px -711px}\\u000a.sx_ac8616{background-position:-204px -711px}\\u000a.sx_3ecf0e{background-position:0 -728px}\\u000a.sx_7c6363{background-position:-17px -728px}\\u000a.sx_55b9e2{background-position:-34px -728px}\\u000a.sx_f07a26{background-position:-51px -728px}\\u000a.sx_2252b1{background-position:-68px -728px}\\u000a.sx_15b263{background-position:-85px -728px}\\u000a.sx_c5ca35{background-position:-102px -728px}\\u000a.sx_d65723{background-position:-119px -728px}\\u000a.sx_b87843{background-position:-136px -728px}\\u000a.sx_429161{background-position:-153px -728px}\\u000a.sx_0beda1{background-position:-170px -728px}\\u000a.sx_2501c9{background-position:-187px -728px}\\u000a.sx_68092a{background-position:-204px -728px}\\u000a.sx_aba8fa{background-position:0 -745px}\\u000a.sx_67ba29{background-position:-17px -745px}\\u000a.sx_86e9ed{background-position:-34px -745px}\\u000a.sx_c363c7{background-position:-51px -745px}\\u000a.sx_35a226{background-position:-68px -745px}\\u000a.sx_f4b999{background-position:-85px -745px}\\u000a.sx_e1b134{background-position:-102px -745px}\\u000a.sx_5f8fa3{background-position:-119px -745px}\\u000a.sx_8ff108{background-position:-136px -745px}\\u000a.sx_d83bb2{background-position:-153px -745px}\\u000a.sx_5d7555{background-position:-170px -745px}\\u000a.sx_b27e42{background-position:-187px -745px}\\u000a.sx_154174{background-position:-204px -745px}\\u000a.sx_8d3853{background-position:0 -762px}\\u000a.sx_b64558{background-position:-17px -762px}\\u000a.sx_dcb5d2{background-position:-34px -762px}\\u000a.sx_1535e1{background-position:-51px -762px}\\u000a.sx_cb4ecf{background-position:-68px -762px}\\u000a.sx_a8cceb{background-position:-85px -762px}\\u000a.sx_a23d8c{background-position:-102px -762px}\\u000a.sx_18af43{background-position:-119px -762px}\\u000a.sx_5a3b2a{background-position:-136px -762px}\\u000a.sx_b3a9c8{background-position:-153px -762px}\\u000a.sx_ffadca{background-position:-170px -762px}\\u000a.sx_816d41{background-position:-187px -762px}\\u000a.sx_e49d75{background-position:-204px -762px}\\u000a.sx_0f7ff0{background-position:0 -784px}\\u000a.sx_87d95a{background-position:-17px -784px}\\u000a.sx_c11350{background-position:-34px -784px}\\u000a.sx_16d91b{background-position:-51px -784px}\\u000a.sx_8b648c{background-position:-68px -784px}\\u000a.sx_91c926{background-position:-85px -784px}\\u000a.sx_92e40b{background-position:-102px -784px}\\u000a.sx_4175ea{background-position:-119px -784px}\\u000a.sx_8a843a{background-position:-136px -784px}\\u000a.sx_547ef1{background-position:-153px -784px}\\u000a.sx_3f6844{background-position:-170px -784px}\\u000a.sx_63c869{background-position:-187px -784px}\\u000a.sx_ac67c4{background-position:-204px -784px}\\u000a.sx_a03701{background-position:-221px -784px}\\u000a.sx_a203b3{background-position:-238px -784px}\\u000a.sx_3c85ff{background-position:-255px -784px}\\u000a.sx_1be8cb{background-position:-272px -784px}\\u000a.sx_020d09{background-position:-289px -784px}\\u000a.sx_45f8a2{background-position:0 -801px}\\u000a.sx_aee157{background-position:-17px -801px}\\u000a.sx_04dea6{background-position:-34px -801px}\\u000a.sx_48c329{background-position:-51px -801px}\\u000a.sx_07f639{background-position:-68px -801px}\\u000a.sx_7c6693{background-position:-85px -801px}\\u000a.sx_82f16a{background-position:-102px -801px}\\u000a.sx_b9a855{background-position:-119px -801px}\\u000a.sx_cbf391{background-position:-136px -801px}\\u000a.sx_d03fec{background-position:-153px -801px}\\u000a.sx_88348d{background-position:-170px -801px}\\u000a.sx_01e8a1{background-position:-187px -801px}\\u000a.sx_828609{background-position:-204px -801px}\\u000a.sx_e0901d{background-position:-221px -801px}\\u000a.sx_42fc52{background-position:-238px -801px}\\u000a.sx_c6c2df{background-position:-255px -801px}\\u000a.sx_1f0610{background-position:-272px -801px}\\u000a.sx_97beff{background-position:-289px -801px}\\u000a.sx_162c66{background-position:0 -818px}\\u000a.sx_f3b4c5{background-position:-17px -818px}\\u000a.sx_50a5bf{background-position:-34px -818px}\\u000a.sx_c2a8c6{background-position:-51px -818px}\\u000a.sx_7f626e{background-position:-68px -818px}\\u000a.sx_6e7701{background-position:-85px -818px}\\u000a.sx_68bf59{background-position:-102px -818px}\\u000a.sx_d659a6{background-position:-119px -818px}\\u000a.sx_aad0b7{background-position:-136px -818px}\\u000a.sx_9d6edd{background-position:-153px -818px}\\u000a.sx_4f25b6{background-position:-170px -818px}\\u000a.sx_dd91e1{background-position:-187px -818px}\\u000a.sx_8c1876{background-position:-204px -818px}\\u000a.sx_e0b2a5{background-position:-221px -818px}\\u000a.sx_a479d5{background-position:-238px -818px}\\u000a.sx_cf15b7{background-position:-255px -818px}\\u000a.sx_dd481f{background-position:-272px -818px}\\u000a.sx_652955{background-position:-289px -818px}\\u000a.sx_245e6f{background-position:0 -835px}\\u000a.sx_4cf63b{background-position:-17px -835px}\\u000a.sx_325414{background-position:-34px -835px}\\u000a.sx_abd39e{background-position:-51px -835px}\\u000a.sx_ab16a8{background-position:-68px -835px}\\u000a.sx_b2b5ea{background-position:-85px -835px}\\u000a.sx_edcba8{background-position:-102px -835px}\\u000a.sx_e36bbf{background-position:-119px -835px}\\u000a.sx_0d8a6e{background-position:-136px -835px}\\u000a.sx_4aae12{background-position:-153px -835px}\\u000a.sx_fee198{background-position:-170px -835px}\\u000a.sx_f90e41{background-position:-187px -835px}\\u000a.sx_bd57db{background-position:-204px -835px}\\u000a.sx_dea2ef{background-position:-221px -835px}\\u000a.sx_8b0a16{background-position:-238px -835px}\\u000a.sx_faa44d{background-position:-255px -835px}\\u000a.sx_9a410a{background-position:-272px -835px}\\u000a.sx_2563b2{background-position:-289px -835px}\\u000a.sx_30cf11{background-position:0 -852px}\\u000a.sx_edd2a3{background-position:-17px -852px}\\u000a.sx_1e8a7f{background-position:-34px -852px}\\u000a.sx_80ffbe{background-position:-51px -852px}\\u000a.sx_ec0744{background-position:-68px -852px}\\u000a.sx_ff080e{background-position:-85px -852px}\\u000a.sx_101735{background-position:-102px -852px}\\u000a.sx_9a4597{background-position:-119px -852px}\\u000a.sx_39e003{background-position:-136px -852px}\\u000a.sx_4a1258{background-position:-153px -852px}\\u000a.sx_eeff8d{background-position:-170px -852px}\\u000a.sx_dcc503{background-position:-187px -852px}\\u000a.sx_4bb37c{background-position:-204px -852px}\\u000a.sx_f86429{background-position:-221px -852px}\\u000a.sx_de4304{background-position:-238px -852px}\\u000a.sx_0d2583{background-position:-255px -852px}\\u000a.sx_fb22b7{background-position:-272px -852px}\\u000a.sx_b14f93{background-position:-289px -852px}\\u000a.sx_93c653{background-position:0 -869px}\\u000a.sx_34e847{background-position:-17px -869px}\\u000a.sx_6e298b{background-position:-34px -869px}\\u000a.sx_764a30{background-position:-51px -869px}\\u000a.sx_577be0{background-position:-68px -869px}\\u000a.sx_78b32c{background-position:-85px -869px}\\u000a.sx_579d96{background-position:-102px -869px}\\u000a.sx_2f99e0{background-position:-119px -869px}\\u000a.sx_b888dc{background-position:-136px -869px}\\u000a.sx_d54507{background-position:-153px -869px}\\u000a.sx_6f64b8{background-position:-170px -869px}\\u000a.sx_e9e9bf{background-position:-187px -869px}\\u000a.sx_290d1f{background-position:-204px -869px}\\u000a.sx_c4ebaf{background-position:-221px -869px}\\u000a.sx_34871d{background-position:-238px -869px}\\u000a.sx_adf34b{background-position:-255px -869px}\\u000a.sx_f5a746{background-position:-272px -869px}\\u000a.sx_b4c26d{background-position:-289px -869px}\\u000a.sx_bdf2bf{background-position:0 -886px}\\u000a.sx_ed03a7{background-position:-17px -886px}\\u000a.sx_003f2f{background-position:-34px -886px}\\u000a.sx_c151e4{background-position:-51px -886px}\\u000a.sx_c95b52{background-position:-68px -886px}\\u000a.sx_d06470{background-position:-85px -886px}\\u000a.sx_81f8e5{background-position:-102px -886px}\\u000a.sx_27b7b2{background-position:-119px -886px}\\u000a.sx_5e0dd1{background-position:-136px -886px}\\u000a.sx_531fe3{background-position:-52px -616px}\\u000a.sx_e8c5df{background-position:-153px -886px}\\u000a.sx_4deba4{background-position:-170px -886px}\\u000a.sx_6abeb3{background-position:-187px -886px}\\u000a.sx_6dcf39{background-position:-204px -886px}\\u000a.sx_ca62ad{width:14px;background-position:-150px -903px}\\u000a.sx_bd08fb{background-position:-221px -886px}\\u000a.sx_92a227{background-position:-238px -886px}\\u000a.sx_ce170f{background-position:-255px -886px}\\u000a.sx_55321b{background-position:-272px -886px}\\u000a.sx_de2869{background-position:-289px -886px}\\u000a.sx_b35297{background-position:0 -903px}\\u000a.sx_13ad0a{background-position:-17px -903px}\\u000a.sx_a467c3{background-position:-34px -903px}\\u000a.sx_87c3ae{width:14px;height:14px;background-position:-282px -170px}\\u000a.selected .sx_87c3ae{background-position:-268px -170px}\\u000a.sx_b3f77f{width:12px;height:14px;background-position:-218px -253px}\\u000a.selected .sx_b3f77f{background-position:-206px -253px}\\u000a.sx_15668a{width:9px;height:14px;background-position:-72px -601px}\\u000a.selected .sx_15668a{background-position:-63px -601px}\\u000a.sx_854f23{width:10px;height:14px;background-position:-10px -601px}\\u000a.selected .sx_854f23{background-position:0 -601px}\\u000a.sx_5e5b94{width:12px;height:14px;background-position:-243px -253px}\\u000a.selected .sx_5e5b94{background-position:-231px -253px}\\u000a.sx_b46582{width:9px;height:14px;background-position:-91px -601px}\\u000a.selected .sx_b46582{background-position:-82px -601px}\\u000a.sx_acc36c{width:10px;height:14px;background-position:-31px -601px}\\u000a.selected .sx_acc36c{background-position:-21px -601px}\\u000a.sx_15ce63{width:10px;height:14px;background-position:-52px -601px}\\u000a.selected .sx_15ce63{background-position:-42px -601px}\\u000a.sx_795693{width:11px;height:14px;background-position:-96px -542px}\\u000a.selected .sx_795693{background-position:-85px -542px}\\u000a.sx_335e5d{width:8px;height:14px;background-position:-96px -616px}\\u000a.selected .sx_335e5d{background-position:-88px -616px}\\u000a.sx_d261fe{width:12px;height:14px;background-position:-268px -253px}\\u000a.selected .sx_d261fe{background-position:-256px -253px}\\u000a.sx_b408e6{width:9px;height:13px;background-position:-129px -601px}\\u000a.selected .sx_b408e6{background-position:-120px -601px}\\u000a.sx_3cc263{width:12px;height:14px;background-position:-293px -253px}\\u000a.selected .sx_3cc263{background-position:-281px -253px}\\u000a.sx_de49ca{width:9px;height:14px;background-position:-110px -601px}\\u000a.selected .sx_de49ca{background-position:-101px -601px}\\u000a.sx_72bf8b{width:9px;height:12px;background-position:-209px -542px}\\u000a.selected .sx_72bf8b{background-position:-200px -542px}\\u000a.sx_33afd8{width:12px;height:10px;background-position:-279px -233px}\\u000a.selected .sx_33afd8{background-position:-267px -233px}\\u000a.sx_a48581{width:8px;height:14px;background-position:-113px -616px}\\u000a.selected .sx_a48581{background-position:-105px -616px}\\u000a.sx_505286{width:11px;height:12px;background-position:-165px -542px}\\u000a.selected .sx_505286{background-position:-154px -542px}\\u000a.sx_d6ec75{width:11px;height:14px;background-position:-119px -542px}\\u000a.selected .sx_d6ec75{background-position:-108px -542px}\\u000a.sx_994ae1{width:11px;height:14px;background-position:-142px -542px}\\u000a.selected .sx_994ae1{background-position:-131px -542px}\\u000a.sx_7a36db{width:11px;height:12px;background-position:-204px -903px}\\u000a.sx_f4daae{width:8px;height:14px;background-position:-130px -616px}\\u000a.selected .sx_f4daae{background-position:-122px -616px}\\u000a.sx_36f179{width:13px;height:10px;background-position:-297px -105px}\\u000a.selected .sx_36f179{background-position:-284px -105px}\\u000a.sx_303293{height:10px;background-position:-157px -601px}\\u000a.sx_40d4c2{background-position:-51px -903px}\\u000a.sx_cef735{background-position:-68px -903px}\\u000a.sx_95b562{width:17px;height:12px;background-position:-139px -601px}\\u000a.sx_ec0d22{background-position:-85px -903px}\\u000a.sx_6ffd7d{width:22px;height:12px;background-position:-177px -542px}\\u000a.sx_2256c8{width:12px;height:11px;background-position:-228px -903px}\\u000a.sx_d15f4b{width:28px;height:28px;background-position:-186px -434px}\\u000a.sx_114f94{width:28px;height:28px;background-position:0 -513px}\\u000a.sx_052d2e{width:28px;height:28px;background-position:-29px -513px}\\u000a.sx_378b70{width:28px;height:28px;background-position:-58px -513px}\\u000a.sx_db929a{width:28px;height:28px;background-position:-87px -513px}\\u000a.sx_bc073a{width:28px;height:28px;background-position:-116px -513px}\\u000a.sx_b48c64{width:205px;height:4px;background-position:0 -253px}\\u000a.sx_7ff588{width:205px;height:4px;background-position:0 -258px}\\u000a.sx_186cf6{width:6px;height:9px;background-position:-304px -268px}\\u000a.sx_3b028c{width:6px;height:9px;background-position:-304px -278px}\\u000a.sx_332928{width:8px;height:7px;background-position:-44px -471px}\\u000a.sx_f62101{width:8px;height:7px;background-position:-53px -471px}\\u000a.sx_0c7fa9{width:8px;height:7px;background-position:-62px -471px}\\u000a.sx_4295a4{width:6px;height:9px;background-position:-304px -288px}\\u000a.sx_16c306{width:13px;height:13px;background-position:-5px -577px}\\u000a.sx_07018f{width:13px;height:13px;background-position:-29px -577px}\\u000a.sx_ad372a{width:8px;height:10px;background-position:-303px -922px}\\u000a.sx_f3bc58{width:28px;height:28px;background-position:-145px -513px}\\u000a.sx_d9cb72{width:28px;height:28px;background-position:-174px -513px}\\u000a.sx_439aba{width:8px;height:10px;background-position:-303px -935px}\\u000a.sx_23c0be{width:32px;height:32px;background-position:0 -480px}\\u000a.sx_78bd9d{width:32px;height:32px;background-position:-33px -480px}\\u000a.sx_27ba0b{width:13px;height:14px;background-position:-198px -309px}\\u000a.sx_13dcf3{width:13px;height:14px;background-position:-198px -341px}\\u000a.sx_94de6f{width:13px;height:14px;background-position:-198px -373px}\\u000a.sx_e5e603{width:12px;height:17px;background-position:0 -634px}\\u000a.sx_a16778{width:12px;height:17px;background-position:-13px -634px}\\u000a.sx_1fc8ae{height:17px;background-position:-18px -616px}\\u000a.sx_434a51{height:17px;background-position:-35px -616px}\\u000a.sx_81d425{width:24px;height:32px;background-position:-14px -401px}\\u000a.sx_21f806{width:24px;height:32px;background-position:-70px -401px}\\u000a.sx_dd8758{width:1px;height:28px;background-position:-310px -124px}\\u000a.sx_10266c{width:17px;height:14px;background-position:-70px -616px}\\u000a.sx_aa9029{width:5px;height:28px;background-position:-304px -124px}\\u000a.sx_d46f58{width:5px;height:28px;background-position:-295px -187px}\\u000a.sx_0ca58a{width:28px;height:28px;background-position:0 -542px}\\u000a.sx_7b50da{width:28px;height:28px;background-position:-29px -542px}\\u000a.sx_04e0c3{width:7px;height:8px;background-position:-28px -471px}\\u000a.sx_521d66{width:7px;height:8px;background-position:-36px -471px}\\u000a.sx_1686e5{width:151px;height:30px;background-position:0 -268px}\\u000a.sx_4004bd{width:12px;height:13px;background-position:-148px -616px}\\u000a.sx_6b5078{width:12px;height:13px;background-position:-161px -616px}\\u000a.sx_3c0054{width:12px;height:13px;background-position:-174px -616px}\\u000a.sx_760fd1{width:1px;height:21px;background-position:-301px -187px}\\u000a.sx_3e25a7{width:12px;height:21px;background-position:-203px -513px}\\u000a.sx_c91382{width:12px;height:21px;background-position:-207px -571px}\\u000a.sx_b5120e{width:151px;height:30px;background-position:-152px -268px}\\u000a.sx_65a164{width:205px;height:4px;background-position:0 -263px}\\u000a.sx_f11141{width:13px;height:13px;background-position:-76px -490px}\\u000a.sx_de5aa1{width:13px;height:13px;background-position:-109px -490px}\\u000a.sx_4529b3{width:8px;height:10px;background-position:-303px -946px}\\u000a.sx_b825ff{width:8px;height:10px;background-position:-303px -959px}\\u000a.sx_0bfad4{width:13px;height:14px;background-position:-297px -170px}\\u000a.sx_60713f{width:8px;height:10px;background-position:-252px -903px}\\u000a.sx_474596{width:8px;height:10px;background-position:-261px -903px}\\u000a.sx_2e6248{width:8px;height:14px;background-position:-303px -187px}\\u000a.sx_e620b7{width:8px;height:14px;background-position:-139px -616px}\\u000a.sx_339e55{width:15px;background-position:-134px -903px}\\u000a.sx_34096d{width:11px;height:12px;background-position:-216px -903px}\\u000a.sx_c721b7{width:3px;height:32px;background-position:-296px -124px}\\u000a.sx_b5b8d0{width:3px;height:32px;background-position:-300px -124px}\\u000a.sx_03e0e2{width:14px;height:14px;background-position:-166px -442px}\\u000a.sx_283ae6{width:27px;height:45px;background-position:-284px -59px}\\u000a.sx_3b682c{width:27px;height:45px;background-position:-268px -124px}\\u000a.sx_f7b35a{width:27px;height:45px;background-position:-267px -187px}\\u000a.sx_ae978c{width:27px;height:45px;background-position:0 -434px}\\u000a.sx_6a1ce4{width:12px;height:12px;background-position:-296px -157px}\\u000a.sx_0e2f37{width:12px;height:12px;background-position:-205px -616px}\\u000a.sx_b59231{width:12px;height:12px;background-position:-165px -903px}\\u000a.sx_9114b0{width:12px;height:12px;background-position:-178px -903px}\\u000a.sx_3bd14e{width:12px;height:12px;background-position:-191px -903px}\\u000a.sx_3f1381{width:10px;height:10px;background-position:-185px -601px}\\u000a.sx_781e1a{width:10px;height:10px;background-position:-196px -601px}\\u000a.sx_8f0877{width:10px;height:10px;background-position:-207px -601px}\\u000a.sx_d2dde2{width:10px;height:10px;background-position:-213px -634px}\\u000a.sx_020278{width:10px;height:10px;background-position:-241px -903px}.sp_ek2zwx{background-image:url(https://fbstatic-a.akamaihd.net/rsrc.php/v2/yM/r/BbwAtXH3qiw.png);background-size:auto;background-repeat:no-repeat;display:inline-block;height:16px;width:15px}\\u000a.sx_99999a{width:16px;background-position:-16px 0}\\u000a.selected .sx_99999a{background-position:0 0}\\u000a.sx_8f5a80{height:14px;background-position:0 -34px}\\u000a.sx_973956{height:15px;background-position:-17px -17px}\\u000a.sx_4035e2{width:16px;background-position:0 -17px}.sp_b4lfdy{background-image:url(https://fbstatic-a.akamaihd.net/rsrc.php/v2/yN/r/6xaWq5cCknd.png);background-size:auto;background-repeat:no-repeat;display:inline-block;height:4px;width:16px}\\u000a.sx_ef5102{width:15px;height:24px;background-position:-70px -20px}\\u000a.sx_bb1109{width:26px;height:26px;background-position:-43px -20px}\\u000a.sx_9b3c13{width:42px;height:42px;background-position:0 -20px}\\u000a.sx_9def6d{width:11px;height:11px;background-position:-43px -47px}\\u000a.sx_fa96f1{width:12px;height:13px;background-position:-187px -20px}\\u000a.sx_2270e2{width:3px;height:2px;background-position:-509px -10px}\\u000a.sx_a2b731{height:16px;background-position:-86px -20px}\\u000a.sx_027ca4{height:16px;background-position:-103px -20px}\\u000a.sx_1b9b5f{height:16px;background-position:-120px -20px}\\u000a.sx_309bee{height:15px;background-position:-154px -20px}\\u000a.sx_2cf418{width:12px;height:10px;background-position:-212px -20px}\\u000a.sx_25aa96{width:15px;height:13px;background-position:-171px -20px}\\u000a.sx_e02eac{height:16px;background-position:-137px -20px}\\u000a.sx_341527{width:11px;height:12px;background-position:-200px -20px}\\u000a.sx_b638a9{width:9px;height:9px;background-position:-225px -20px}\\u000a.sx_5f3484{width:323px;background-position:0 -10px}\\u000a.sx_733717{width:512px;background-position:0 0}\\u000a.sx_011ff4{width:323px;background-position:0 -15px}\\u000a.sx_342b42{width:512px;background-position:0 -5px}\\u000a.sx_78239c{width:13px;height:3px;background-position:-324px -10px}.sp_b4lfdy{background-image:url(https://fbstatic-a.akamaihd.net/rsrc.php/v2/yN/r/6xaWq5cCknd.png);background-size:auto;background-repeat:no-repeat;display:inline-block;height:4px;width:16px}\\u000a.sx_ef5102{width:15px;height:24px;background-position:-70px -20px}\\u000a.sx_bb1109{width:26px;height:26px;background-position:-43px -20px}\\u000a.sx_9b3c13{width:42px;height:42px;background-position:0 -20px}\\u000a.sx_9def6d{width:11px;height:11px;background-position:-43px -47px}\\u000a.sx_fa96f1{width:12px;height:13px;background-position:-187px -20px}\\u000a.sx_2270e2{width:3px;height:2px;background-position:-509px -10px}\\u000a.sx_a2b731{height:16px;background-position:-86px -20px}\\u000a.sx_027ca4{height:16px;background-position:-103px -20px}\\u000a.sx_1b9b5f{height:16px;background-position:-120px -20px}\\u000a.sx_309bee{height:15px;background-position:-154px -20px}\\u000a.sx_2cf418{width:12px;height:10px;background-position:-212px -20px}\\u000a.sx_25aa96{width:15px;height:13px;background-position:-171px -20px}\\u000a.sx_e02eac{height:16px;background-position:-137px -20px}\\u000a.sx_341527{width:11px;height:12px;background-position:-200px -20px}\\u000a.sx_b638a9{width:9px;height:9px;background-position:-225px -20px}\\u000a.sx_5f3484{width:323px;background-position:0 -10px}\\u000a.sx_733717{width:512px;background-position:0 0}\\u000a.sx_011ff4{width:323px;background-position:0 -15px}\\u000a.sx_342b42{width:512px;background-position:0 -5px}\\u000a.sx_78239c{width:13px;height:3px;background-position:-324px -10px}.sp_7v0jph{background-image:url(https://fbstatic-a.akamaihd.net/rsrc.php/v2/y3/r/ib8KlPuJ9lQ.png);background-size:auto;background-repeat:no-repeat;display:inline-block;height:16px;width:16px}\\u000a.sx_d5f63b{background-position:0 -18px}\\u000a.sx_2842a8{background-position:0 -35px}\\u000a.sx_f7cfbf{background-position:0 -52px}\\u000a.sx_751e2a{background-position:0 -69px}\\u000a.sx_45a5a7{background-position:0 -86px}\\u000a.sx_ce9e51{height:17px;background-position:0 0}\\u000a.sx_f97e36{width:10px;height:13px;background-position:0 -103px}\np5\nsas.'
p8
sS'hash'
p9
S'038ffa90f5d775f324f2a8f517486785ac9db70d'
p10
sS'stack'
p11
S'get util.py get_stack facade.py cache patch.py patch_with facade.py cache patch.py patch_with models_test.py _test_single_endpoint models_test.py test_graph_api patch.py patched_test '
p12
s.