(dp1
S'args'
p2
S"(S'PyFacebook'\np0\ntp1\n."
p3
sS'methodname'
p4
S'delete'
p5
sS'packet_num'
p6
I0
sS'returnval'
p7
S'I01\n.'
p8
sS'hash'
p9
S'4913605b99e69475eaa6abf0780d1963d25b7e57'
p10
sS'stack'
p11
S'delete util.py get_stack facade.py cache patch.py patch_with models_test.py _test_single_endpoint models_test.py test_graph_api patch.py patched_test '
p12
s.