(dp1
S'args'
p2
S"(S'PyFacebook'\np0\ntp1\n."
p3
sS'methodname'
p4
S'patch_with'
p5
sS'packet_num'
p6
I0
sS'returnval'
p7
S"(dp0\nS'data'\np1\n(lp2\n(dp3\nVid\np4\nV122869\np5\nsas."
p8
sS'hash'
p9
S'6f16ab1386309c11dc9aa0b6baefd3e55f34743b'
p10
sS'stack'
p11
S'patch_with util.py get_stack facade.py cache patch.py patch_with models_test.py _test_single_endpoint models_test.py test_graph_api patch.py patched_test '
p12
s.