(dp1
S'args'
p2
S"(S'PyFacebook'\np0\ntp1\n."
p3
sS'methodname'
p4
S'get'
p5
sS'packet_num'
p6
I0
sS'returnval'
p7
S"(dp0\nS'data'\np1\n(lp2\n(dp3\nVid\np4\nV122869\np5\nsas."
p8
sS'hash'
p9
S'aa82d10ecee726adab486494e14d64fac321c8f1'
p10
sS'stack'
p11
S'get util.py get_stack facade.py cache patch.py patch_with facade.py cache patch.py patch_with models_test.py _test_single_endpoint models_test.py test_graph_api patch.py patched_test '
p12
s.